SF:/home/user/projects/visualsign-parser/src/chain_parsers/visualsign-solana/src/core/accounts/decode.rs
FN:18,_RNvNtNtNtCs6ttZxmOuonq_17visualsign_solana4core8accounts6decode15decode_accounts
FN:85,_RNvNtNtNtCs6ttZxmOuonq_17visualsign_solana4core8accounts6decode18decode_v0_accounts
FN:155,_RNvNtNtNtCs6ttZxmOuonq_17visualsign_solana4core8accounts6decode26accounts_to_payload_fields
FN:187,_RNvNtNtNtCs6ttZxmOuonq_17visualsign_solana4core8accounts6decode39create_accounts_advanced_preview_layout
FN:320,_RNvNtNtNtNtCs6ttZxmOuonq_17visualsign_solana4core8accounts6decode5tests19create_test_message
FN:376,_RNvNtNtNtNtCs6ttZxmOuonq_17visualsign_solana4core8accounts6decode5testss_20test_account_sorting
FN:564,_RNvNtNtNtNtCs6ttZxmOuonq_17visualsign_solana4core8accounts6decode5testss_23test_decode_v0_accounts
FN:777,_RNvNtNtNtNtCs6ttZxmOuonq_17visualsign_solana4core8accounts6decode5testss_25test_fallback_text_format
FN:339,_RNvNtNtNtNtCs6ttZxmOuonq_17visualsign_solana4core8accounts6decode5testss_26test_decode_accounts_basic
FN:423,_RNvNtNtNtNtCs6ttZxmOuonq_17visualsign_solana4core8accounts6decode5testss_29test_signer_writable_priority
FN:510,_RNvNtNtNtNtCs6ttZxmOuonq_17visualsign_solana4core8accounts6decode5testss_31test_accounts_to_payload_fields
FN:452,_RNvNtNtNtNtCs6ttZxmOuonq_17visualsign_solana4core8accounts6decode5testss_34test_decode_all_account_categories
FN:598,_RNvNtNtNtNtCs6ttZxmOuonq_17visualsign_solana4core8accounts6decode5testss_44test_create_accounts_advanced_preview_layout
FN:703,_RNvNtNtNtNtCs6ttZxmOuonq_17visualsign_solana4core8accounts6decode5testss_52test_create_accounts_advanced_preview_layout_plurals
FN:23,_RNCNvNtNtNtCs6ttZxmOuonq_17visualsign_solana4core8accounts6decode15decode_accounts0B9_
FN:54,_RNCNvNtNtNtCs6ttZxmOuonq_17visualsign_solana4core8accounts6decode15decode_accountss_0B9_
FN:92,_RNCNvNtNtNtCs6ttZxmOuonq_17visualsign_solana4core8accounts6decode18decode_v0_accounts0B9_
FN:124,_RNCNvNtNtNtCs6ttZxmOuonq_17visualsign_solana4core8accounts6decode18decode_v0_accountss_0B9_
FN:158,_RNCNvNtNtNtCs6ttZxmOuonq_17visualsign_solana4core8accounts6decode26accounts_to_payload_fields0B9_
FN:272,_RNCNvNtNtNtCs6ttZxmOuonq_17visualsign_solana4core8accounts6decode39create_accounts_advanced_preview_layout0B9_
FNDA:11,_RNvNtNtNtCs6ttZxmOuonq_17visualsign_solana4core8accounts6decode15decode_accounts
FNDA:4,_RNvNtNtNtCs6ttZxmOuonq_17visualsign_solana4core8accounts6decode18decode_v0_accounts
FNDA:14,_RNvNtNtNtCs6ttZxmOuonq_17visualsign_solana4core8accounts6decode26accounts_to_payload_fields
FNDA:13,_RNvNtNtNtCs6ttZxmOuonq_17visualsign_solana4core8accounts6decode39create_accounts_advanced_preview_layout
FNDA:1,_RNvNtNtNtNtCs6ttZxmOuonq_17visualsign_solana4core8accounts6decode5tests19create_test_message
FNDA:1,_RNvNtNtNtNtCs6ttZxmOuonq_17visualsign_solana4core8accounts6decode5testss_20test_account_sorting
FNDA:1,_RNvNtNtNtNtCs6ttZxmOuonq_17visualsign_solana4core8accounts6decode5testss_23test_decode_v0_accounts
FNDA:1,_RNvNtNtNtNtCs6ttZxmOuonq_17visualsign_solana4core8accounts6decode5testss_25test_fallback_text_format
FNDA:1,_RNvNtNtNtNtCs6ttZxmOuonq_17visualsign_solana4core8accounts6decode5testss_26test_decode_accounts_basic
FNDA:1,_RNvNtNtNtNtCs6ttZxmOuonq_17visualsign_solana4core8accounts6decode5testss_29test_signer_writable_priority
FNDA:1,_RNvNtNtNtNtCs6ttZxmOuonq_17visualsign_solana4core8accounts6decode5testss_31test_accounts_to_payload_fields
FNDA:1,_RNvNtNtNtNtCs6ttZxmOuonq_17visualsign_solana4core8accounts6decode5testss_34test_decode_all_account_categories
FNDA:1,_RNvNtNtNtNtCs6ttZxmOuonq_17visualsign_solana4core8accounts6decode5testss_44test_create_accounts_advanced_preview_layout
FNDA:1,_RNvNtNtNtNtCs6ttZxmOuonq_17visualsign_solana4core8accounts6decode5testss_52test_create_accounts_advanced_preview_layout_plurals
FNDA:96,_RNCNvNtNtNtCs6ttZxmOuonq_17visualsign_solana4core8accounts6decode15decode_accounts0B9_
FNDA:85,_RNCNvNtNtNtCs6ttZxmOuonq_17visualsign_solana4core8accounts6decode15decode_accountss_0B9_
FNDA:25,_RNCNvNtNtNtCs6ttZxmOuonq_17visualsign_solana4core8accounts6decode18decode_v0_accounts0B9_
FNDA:21,_RNCNvNtNtNtCs6ttZxmOuonq_17visualsign_solana4core8accounts6decode18decode_v0_accountss_0B9_
FNDA:118,_RNCNvNtNtNtCs6ttZxmOuonq_17visualsign_solana4core8accounts6decode26accounts_to_payload_fields0B9_
FNDA:116,_RNCNvNtNtNtCs6ttZxmOuonq_17visualsign_solana4core8accounts6decode39create_accounts_advanced_preview_layout0B9_
FNF:20
FNH:20
DA:18,11
DA:19,11
DA:20,11
DA:21,11
DA:22,11
DA:23,96
DA:24,96
DA:25,96
DA:27,17
DA:28,17
DA:29,17
DA:32,79
DA:33,79
DA:34,79
DA:35,79
DA:36,79
DA:37,79
DA:40,96
DA:41,96
DA:42,96
DA:43,96
DA:44,96
DA:45,96
DA:46,96
DA:47,11
DA:54,85
DA:55,85
DA:56,2
DA:57,83
DA:58,4
DA:59,79
DA:60,32
DA:62,47
DA:65,85
DA:66,13
DA:67,72
DA:68,3
DA:69,69
DA:70,32
DA:72,37
DA:75,85
DA:76,65
DA:77,20
DA:79,85
DA:81,11
DA:82,11
DA:85,4
DA:86,4
DA:87,4
DA:88,4
DA:89,4
DA:90,4
DA:91,4
DA:92,25
DA:94,25
DA:95,25
DA:97,4
DA:98,4
DA:99,4
DA:102,21
DA:103,21
DA:104,21
DA:105,21
DA:106,21
DA:107,21
DA:110,25
DA:111,25
DA:112,25
DA:113,25
DA:114,25
DA:115,25
DA:116,25
DA:117,4
DA:124,21
DA:125,21
DA:126,0
DA:127,21
DA:128,0
DA:129,21
DA:130,10
DA:132,11
DA:135,21
DA:136,4
DA:137,17
DA:138,0
DA:139,17
DA:140,10
DA:142,7
DA:145,21
DA:146,14
DA:147,7
DA:149,21
DA:151,4
DA:152,4
DA:155,14
DA:156,14
DA:157,14
DA:158,118
DA:159,118
DA:160,118
DA:161,17
DA:162,101
DA:163,118
DA:164,60
DA:165,60
DA:167,118
DA:168,118
DA:169,118
DA:170,118
DA:171,118
DA:172,118
DA:173,118
DA:174,118
DA:175,118
DA:176,118
DA:177,118
DA:178,118
DA:179,118
DA:180,118
DA:181,14
DA:182,14
DA:187,13
DA:188,13
DA:189,13
DA:190,13
DA:192,13
DA:193,13
DA:194,13
DA:197,13
DA:198,13
DA:199,13
DA:201,129
DA:202,116
DA:203,16
DA:204,100
DA:205,43
DA:206,57
DA:207,57
DA:208,57
DA:211,13
DA:213,13
DA:214,13
DA:217,13
DA:218,13
DA:220,13
DA:222,13
DA:225,13
DA:228,13
DA:229,13
DA:231,0
DA:233,13
DA:234,9
DA:235,9
DA:236,9
DA:237,9
DA:238,9
DA:239,9
DA:240,9
DA:241,9
DA:242,9
DA:243,9
DA:244,9
DA:245,9
DA:246,9
DA:247,9
DA:249,13
DA:250,13
DA:251,13
DA:252,13
DA:253,13
DA:254,13
DA:255,13
DA:256,13
DA:257,13
DA:258,13
DA:259,13
DA:260,13
DA:261,13
DA:262,13
DA:263,13
DA:265,13
DA:266,13
DA:267,13
DA:270,13
DA:271,13
DA:272,116
DA:274,116
DA:277,116
DA:278,116
DA:279,16
DA:280,100
DA:281,116
DA:282,59
DA:283,59
DA:284,57
DA:285,57
DA:287,116
DA:288,116
DA:289,13
DA:291,13
DA:294,13
DA:295,13
DA:296,13
DA:297,13
DA:299,13
DA:300,13
DA:301,13
DA:303,13
DA:304,13
DA:305,13
DA:306,13
DA:309,13
DA:310,13
DA:313,13
DA:320,1
DA:321,1
DA:322,1
DA:323,1
DA:324,1
DA:325,1
DA:326,1
DA:327,1
DA:328,1
DA:329,1
DA:330,1
DA:331,1
DA:332,1
DA:333,1
DA:334,1
DA:335,1
DA:336,1
DA:339,1
DA:340,1
DA:341,1
DA:342,1
DA:345,1
DA:349,1
DA:352,1
DA:354,1
DA:357,1
DA:358,1
DA:359,1
DA:360,1
DA:363,1
DA:364,1
DA:365,1
DA:366,1
DA:369,1
DA:370,1
DA:371,1
DA:372,1
DA:373,1
DA:376,1
DA:377,1
DA:378,1
DA:379,1
DA:380,1
DA:384,1
DA:385,1
DA:386,1
DA:387,1
DA:388,1
DA:389,1
DA:390,1
DA:391,1
DA:392,1
DA:393,1
DA:395,1
DA:402,1
DA:403,1
DA:404,1
DA:407,1
DA:408,1
DA:409,1
DA:412,1
DA:413,1
DA:414,1
DA:417,1
DA:418,1
DA:419,1
DA:420,1
DA:423,1
DA:424,1
DA:425,1
DA:428,1
DA:429,1
DA:430,1
DA:431,1
DA:432,1
DA:433,1
DA:434,1
DA:435,1
DA:436,1
DA:437,1
DA:439,1
DA:442,1
DA:443,1
DA:444,1
DA:446,1
DA:447,1
DA:448,1
DA:449,1
DA:452,1
DA:454,1
DA:455,1
DA:456,1
DA:457,1
DA:463,1
DA:464,1
DA:465,1
DA:466,1
DA:467,1
DA:468,1
DA:469,1
DA:470,1
DA:471,1
DA:472,1
DA:473,1
DA:474,1
DA:475,1
DA:476,1
DA:477,1
DA:479,1
DA:481,1
DA:485,1
DA:486,1
DA:487,1
DA:488,1
DA:491,1
DA:492,1
DA:493,1
DA:494,1
DA:497,1
DA:498,1
DA:499,1
DA:500,1
DA:503,1
DA:504,1
DA:505,1
DA:506,1
DA:507,1
DA:510,1
DA:511,1
DA:512,1
DA:513,1
DA:514,1
DA:515,1
DA:516,1
DA:517,1
DA:518,1
DA:519,1
DA:520,1
DA:521,1
DA:522,1
DA:523,1
DA:526,1
DA:528,1
DA:531,1
DA:532,1
DA:533,1
DA:534,1
DA:535,1
DA:536,1
DA:537,1
DA:539,1
DA:540,1
DA:541,1
DA:543,0
DA:547,1
DA:548,1
DA:549,1
DA:550,1
DA:551,1
DA:552,1
DA:553,1
DA:555,1
DA:556,1
DA:557,1
DA:559,0
DA:561,1
DA:564,1
DA:567,1
DA:568,1
DA:570,1
DA:571,1
DA:572,1
DA:573,1
DA:574,1
DA:575,1
DA:576,1
DA:577,1
DA:578,1
DA:579,1
DA:580,1
DA:582,1
DA:584,1
DA:587,1
DA:588,1
DA:589,1
DA:592,1
DA:593,1
DA:594,1
DA:595,1
DA:598,1
DA:599,1
DA:600,1
DA:601,1
DA:602,1
DA:603,1
DA:604,1
DA:605,1
DA:606,1
DA:607,1
DA:608,1
DA:609,1
DA:610,1
DA:611,1
DA:612,1
DA:613,1
DA:614,1
DA:615,1
DA:616,1
DA:617,1
DA:620,1
DA:621,1
DA:623,1
DA:625,1
DA:626,1
DA:629,1
DA:631,1
DA:637,1
DA:638,1
DA:639,1
DA:640,1
DA:643,1
DA:644,1
DA:645,0
DA:646,1
DA:647,1
DA:648,0
DA:651,1
DA:652,1
DA:655,1
DA:656,1
DA:657,1
DA:658,1
DA:660,0
DA:663,1
DA:664,1
DA:665,1
DA:666,1
DA:668,0
DA:671,1
DA:672,1
DA:673,1
DA:674,1
DA:676,0
DA:680,1
DA:681,1
DA:684,1
DA:685,1
DA:686,1
DA:687,1
DA:688,1
DA:689,1
DA:690,1
DA:692,1
DA:693,1
DA:695,0
DA:698,0
DA:700,1
DA:703,1
DA:704,1
DA:705,1
DA:706,1
DA:707,1
DA:708,1
DA:709,1
DA:710,1
DA:711,1
DA:712,1
DA:713,1
DA:714,1
DA:715,1
DA:716,1
DA:717,1
DA:718,1
DA:719,1
DA:720,1
DA:721,1
DA:722,1
DA:723,1
DA:724,1
DA:725,1
DA:726,1
DA:727,1
DA:728,1
DA:729,1
DA:730,1
DA:731,1
DA:732,1
DA:733,1
DA:734,1
DA:737,1
DA:738,1
DA:740,1
DA:741,1
DA:742,1
DA:743,1
DA:746,1
DA:747,1
DA:748,1
DA:749,1
DA:751,0
DA:755,1
DA:756,1
DA:757,1
DA:758,1
DA:760,0
DA:764,1
DA:765,1
DA:766,1
DA:767,1
DA:769,0
DA:772,0
DA:774,1
DA:777,1
DA:778,1
DA:779,1
DA:780,1
DA:781,1
DA:782,1
DA:783,1
DA:784,1
DA:785,1
DA:786,1
DA:787,1
DA:788,1
DA:789,1
DA:790,1
DA:793,1
DA:794,1
DA:796,1
DA:797,1
DA:799,1
DA:800,1
DA:801,1
DA:803,0
DA:805,1
BRF:0
BRH:0
LF:555
LH:537
end_of_record
SF:/home/user/projects/visualsign-parser/src/chain_parsers/visualsign-solana/src/core/instructions.rs
FN:85,_RNvNtNtCs6ttZxmOuonq_17visualsign_solana4core12instructions16decode_transfers
FN:15,_RNvNtNtCs6ttZxmOuonq_17visualsign_solana4core12instructions19decode_instructions
FN:61,_RNCNCNvNtNtCs6ttZxmOuonq_17visualsign_solana4core12instructions19decode_instructionss0_00B9_
FN:35,_RNCNCNvNtNtCs6ttZxmOuonq_17visualsign_solana4core12instructions19decode_instructionss_00B9_
FN:93,_RNCNvNtNtCs6ttZxmOuonq_17visualsign_solana4core12instructions16decode_transfers0B7_
FN:21,_RNCNvNtNtCs6ttZxmOuonq_17visualsign_solana4core12instructions19decode_instructions0B7_
FN:49,_RNCNvNtNtCs6ttZxmOuonq_17visualsign_solana4core12instructions19decode_instructionss0_0B7_
FN:31,_RNCNvNtNtCs6ttZxmOuonq_17visualsign_solana4core12instructions19decode_instructionss_0B7_
FNDA:6,_RNvNtNtCs6ttZxmOuonq_17visualsign_solana4core12instructions16decode_transfers
FNDA:7,_RNvNtNtCs6ttZxmOuonq_17visualsign_solana4core12instructions19decode_instructions
FNDA:0,_RNCNCNvNtNtCs6ttZxmOuonq_17visualsign_solana4core12instructions19decode_instructionss0_00B9_
FNDA:140,_RNCNCNvNtNtCs6ttZxmOuonq_17visualsign_solana4core12instructions19decode_instructionss_00B9_
FNDA:0,_RNCNvNtNtCs6ttZxmOuonq_17visualsign_solana4core12instructions16decode_transfers0B7_
FNDA:49,_RNCNvNtNtCs6ttZxmOuonq_17visualsign_solana4core12instructions19decode_instructions0B7_
FNDA:23,_RNCNvNtNtCs6ttZxmOuonq_17visualsign_solana4core12instructions19decode_instructionss0_0B7_
FNDA:23,_RNCNvNtNtCs6ttZxmOuonq_17visualsign_solana4core12instructions19decode_instructionss_0B7_
FNF:8
FNH:6
DA:15,7
DA:16,7
DA:17,7
DA:19,7
DA:20,7
DA:21,49
DA:23,7
DA:24,7
DA:27,7
DA:28,7
DA:29,7
DA:30,7
DA:31,23
DA:32,23
DA:33,23
DA:34,23
DA:35,140
DA:36,140
DA:37,140
DA:40,140
DA:41,23
DA:42,23
DA:43,23
DA:44,7
DA:46,7
DA:47,7
DA:48,7
DA:49,23
DA:51,23
DA:52,23
DA:53,23
DA:54,23
DA:55,23
DA:57,23
DA:60,23
DA:61,23
DA:62,0
DA:63,0
DA:67,23
DA:68,23
DA:69,7
DA:71,7
DA:74,7
DA:75,0
DA:76,0
DA:77,0
DA:78,0
DA:79,0
DA:80,7
DA:82,7
DA:83,7
DA:85,6
DA:86,6
DA:87,6
DA:88,6
DA:89,6
DA:90,6
DA:93,6
DA:94,0
DA:95,0
DA:96,0
DA:97,0
DA:99,6
DA:102,6
DA:103,6
DA:104,6
DA:105,6
DA:107,6
DA:109,6
DA:110,5
DA:111,5
DA:112,5
DA:113,5
DA:114,5
DA:115,5
DA:116,5
DA:117,5
DA:118,5
DA:119,5
DA:120,5
DA:121,5
DA:122,5
DA:123,5
DA:124,5
DA:125,5
DA:126,5
DA:127,5
DA:128,5
DA:129,5
DA:130,5
DA:131,5
DA:132,5
DA:133,5
DA:134,5
DA:135,5
DA:138,6
DA:139,0
DA:140,0
DA:141,0
DA:142,0
DA:143,0
DA:144,0
DA:145,0
DA:146,0
DA:147,0
DA:148,0
DA:149,0
DA:150,0
DA:151,0
DA:152,0
DA:153,0
DA:154,0
DA:155,0
DA:156,0
DA:157,0
DA:158,0
DA:159,0
DA:160,0
DA:161,0
DA:162,0
DA:163,0
DA:164,0
DA:165,0
DA:166,0
DA:167,0
DA:168,0
DA:169,0
DA:170,0
DA:171,0
DA:173,6
DA:174,6
BRF:0
BRH:0
LF:137
LH:90
end_of_record
SF:/home/user/projects/visualsign-parser/src/chain_parsers/visualsign-solana/src/core/mod.rs
FN:120,_RNvYNtNtNtCs6ttZxmOuonq_17visualsign_solana7presets6system16SystemVisualizerNtNtB8_4core21InstructionVisualizer10can_handleB8_
FN:91,_RNvYNtNtNtNtCs6ttZxmOuonq_17visualsign_solana7presets6system6config12SystemConfigNtNtBa_4core23SolanaIntegrationConfig10can_handleBa_
FN:66,_RNvMNtCs6ttZxmOuonq_17visualsign_solana4coreNtB2_17VisualizerContext17instruction_index
FN:76,_RNvMNtCs6ttZxmOuonq_17visualsign_solana4coreNtB2_17VisualizerContext19current_instruction
FN:48,_RNvMNtCs6ttZxmOuonq_17visualsign_solana4coreNtB2_17VisualizerContext3new
FN:151,_RNvNtCs6ttZxmOuonq_17visualsign_solana4core18visualize_with_any
FN:91,_RNvYNtNtNtNtCs6ttZxmOuonq_17visualsign_solana7presets24associated_token_account6config28AssociatedTokenAccountConfigNtNtBa_4core23SolanaIntegrationConfig10can_handleBa_
FN:91,_RNvYNtNtNtNtCs6ttZxmOuonq_17visualsign_solana7presets9spl_token6config14SplTokenConfigNtNtBa_4core23SolanaIntegrationConfig10can_handleBa_
FN:120,_RNvYNtNtNtCs6ttZxmOuonq_17visualsign_solana7presets12jupiter_swap21JupiterSwapVisualizerNtNtB8_4core21InstructionVisualizer10can_handleB8_
FN:120,_RNvYNtNtNtCs6ttZxmOuonq_17visualsign_solana7presets24associated_token_account32AssociatedTokenAccountVisualizerNtNtB8_4core21InstructionVisualizer10can_handleB8_
FN:91,_RNvYNtNtNtNtCs6ttZxmOuonq_17visualsign_solana7presets14compute_budget6config19ComputeBudgetConfigNtNtBa_4core23SolanaIntegrationConfig10can_handleBa_
FN:120,_RNvYNtNtNtCs6ttZxmOuonq_17visualsign_solana7presets15unknown_program24UnknownProgramVisualizerNtNtB8_4core21InstructionVisualizer10can_handleB8_
FN:71,_RNvMNtCs6ttZxmOuonq_17visualsign_solana4coreNtB2_17VisualizerContext12instructions
FN:61,_RNvMNtCs6ttZxmOuonq_17visualsign_solana4coreNtB2_17VisualizerContext6sender
FN:91,_RNvYNtNtNtNtCs6ttZxmOuonq_17visualsign_solana7presets9stakepool6config15StakepoolConfigNtNtBa_4core23SolanaIntegrationConfig10can_handleBa_
FN:120,_RNvYNtNtNtCs6ttZxmOuonq_17visualsign_solana7presets9stakepool19StakepoolVisualizerNtNtB8_4core21InstructionVisualizer10can_handleB8_
FN:120,_RNvYNtNtNtCs6ttZxmOuonq_17visualsign_solana7presets14compute_budget23ComputeBudgetVisualizerNtNtB8_4core21InstructionVisualizer10can_handleB8_
FN:169,_RNCNCNvNtCs6ttZxmOuonq_17visualsign_solana4core18visualize_with_any00B7_
FN:155,_RNCNvNtCs6ttZxmOuonq_17visualsign_solana4core18visualize_with_any0B5_
FN:91,_RNvYNtNtNtNtCs6ttZxmOuonq_17visualsign_solana7presets12jupiter_swap6config17JupiterSwapConfigNtNtBa_4core23SolanaIntegrationConfig10can_handleBa_
FN:120,_RNvYNtNtNtCs6ttZxmOuonq_17visualsign_solana7presets9spl_token18SplTokenVisualizerNtNtB8_4core21InstructionVisualizer10can_handleB8_
FNDA:11,_RNvYNtNtNtCs6ttZxmOuonq_17visualsign_solana7presets6system16SystemVisualizerNtNtB8_4core21InstructionVisualizer10can_handleB8_
FNDA:11,_RNvYNtNtNtNtCs6ttZxmOuonq_17visualsign_solana7presets6system6config12SystemConfigNtNtBa_4core23SolanaIntegrationConfig10can_handleBa_
FNDA:61,_RNvMNtCs6ttZxmOuonq_17visualsign_solana4coreNtB2_17VisualizerContext17instruction_index
FNDA:113,_RNvMNtCs6ttZxmOuonq_17visualsign_solana4coreNtB2_17VisualizerContext19current_instruction
FNDA:33,_RNvMNtCs6ttZxmOuonq_17visualsign_solana4coreNtB2_17VisualizerContext3new
FNDA:28,_RNvNtCs6ttZxmOuonq_17visualsign_solana4core18visualize_with_any
FNDA:19,_RNvYNtNtNtNtCs6ttZxmOuonq_17visualsign_solana7presets24associated_token_account6config28AssociatedTokenAccountConfigNtNtBa_4core23SolanaIntegrationConfig10can_handleBa_
FNDA:28,_RNvYNtNtNtNtCs6ttZxmOuonq_17visualsign_solana7presets9spl_token6config14SplTokenConfigNtNtBa_4core23SolanaIntegrationConfig10can_handleBa_
FNDA:5,_RNvYNtNtNtCs6ttZxmOuonq_17visualsign_solana7presets12jupiter_swap21JupiterSwapVisualizerNtNtB8_4core21InstructionVisualizer10can_handleB8_
FNDA:19,_RNvYNtNtNtCs6ttZxmOuonq_17visualsign_solana7presets24associated_token_account32AssociatedTokenAccountVisualizerNtNtB8_4core21InstructionVisualizer10can_handleB8_
FNDA:15,_RNvYNtNtNtNtCs6ttZxmOuonq_17visualsign_solana7presets14compute_budget6config19ComputeBudgetConfigNtNtBa_4core23SolanaIntegrationConfig10can_handleBa_
FNDA:1,_RNvYNtNtNtCs6ttZxmOuonq_17visualsign_solana7presets15unknown_program24UnknownProgramVisualizerNtNtB8_4core21InstructionVisualizer10can_handleB8_
FNDA:0,_RNvMNtCs6ttZxmOuonq_17visualsign_solana4coreNtB2_17VisualizerContext12instructions
FNDA:0,_RNvMNtCs6ttZxmOuonq_17visualsign_solana4coreNtB2_17VisualizerContext6sender
FNDA:1,_RNvYNtNtNtNtCs6ttZxmOuonq_17visualsign_solana7presets9stakepool6config15StakepoolConfigNtNtBa_4core23SolanaIntegrationConfig10can_handleBa_
FNDA:1,_RNvYNtNtNtCs6ttZxmOuonq_17visualsign_solana7presets9stakepool19StakepoolVisualizerNtNtB8_4core21InstructionVisualizer10can_handleB8_
FNDA:15,_RNvYNtNtNtCs6ttZxmOuonq_17visualsign_solana7presets14compute_budget23ComputeBudgetVisualizerNtNtB8_4core21InstructionVisualizer10can_handleB8_
FNDA:28,_RNCNCNvNtCs6ttZxmOuonq_17visualsign_solana4core18visualize_with_any00B7_
FNDA:80,_RNCNvNtCs6ttZxmOuonq_17visualsign_solana4core18visualize_with_any0B5_
FNDA:5,_RNvYNtNtNtNtCs6ttZxmOuonq_17visualsign_solana7presets12jupiter_swap6config17JupiterSwapConfigNtNtBa_4core23SolanaIntegrationConfig10can_handleBa_
FNDA:28,_RNvYNtNtNtCs6ttZxmOuonq_17visualsign_solana7presets9spl_token18SplTokenVisualizerNtNtB8_4core21InstructionVisualizer10can_handleB8_
FNF:10
FNH:8
DA:48,33
DA:49,33
DA:50,33
DA:51,33
DA:52,33
DA:53,33
DA:54,33
DA:55,33
DA:56,33
DA:57,33
DA:58,33
DA:61,0
DA:62,0
DA:63,0
DA:66,61
DA:67,61
DA:68,61
DA:71,0
DA:72,0
DA:73,0
DA:76,113
DA:77,113
DA:78,113
DA:91,79
DA:94,79
DA:95,79
DA:96,79
DA:97,79
DA:98,79
DA:99,79
DA:120,80
DA:121,80
DA:122,0
DA:125,80
DA:126,0
DA:130,80
DA:131,80
DA:132,80
DA:151,28
DA:152,28
DA:153,28
DA:154,28
DA:155,80
DA:156,80
DA:157,52
DA:158,28
DA:160,28
DA:161,28
DA:162,28
DA:163,28
DA:167,28
DA:168,28
DA:169,28
DA:170,28
DA:171,28
DA:173,80
DA:174,28
BRF:0
BRH:0
LF:58
LH:50
end_of_record
SF:/home/user/projects/visualsign-parser/src/chain_parsers/visualsign-solana/src/core/txtypes/v0.rs
FN:15,_RNvNtNtNtCs6ttZxmOuonq_17visualsign_solana4core7txtypes2v019decode_v0_transfers
FN:114,_RNvNtNtNtCs6ttZxmOuonq_17visualsign_solana4core7txtypes2v022decode_v0_instructions
FN:194,_RNvNtNtNtCs6ttZxmOuonq_17visualsign_solana4core7txtypes2v033create_address_lookup_table_field
FN:140,_RNCNCNvNtNtNtCs6ttZxmOuonq_17visualsign_solana4core7txtypes2v022decode_v0_instructionss_00Bb_
FN:21,_RNCNvNtNtNtCs6ttZxmOuonq_17visualsign_solana4core7txtypes2v019decode_v0_transfers0B9_
FN:30,_RNCNvNtNtNtCs6ttZxmOuonq_17visualsign_solana4core7txtypes2v019decode_v0_transferss_0B9_
FN:120,_RNCNvNtNtNtCs6ttZxmOuonq_17visualsign_solana4core7txtypes2v022decode_v0_instructions0B9_
FN:175,_RNCNvNtNtNtCs6ttZxmOuonq_17visualsign_solana4core7txtypes2v022decode_v0_instructionss0_0B9_
FN:188,_RNCNvNtNtNtCs6ttZxmOuonq_17visualsign_solana4core7txtypes2v022decode_v0_instructionss1_0B9_
FN:132,_RNCNvNtNtNtCs6ttZxmOuonq_17visualsign_solana4core7txtypes2v022decode_v0_instructionss_0B9_
FN:201,_RNCNvNtNtNtCs6ttZxmOuonq_17visualsign_solana4core7txtypes2v033create_address_lookup_table_field0B9_
FNDA:5,_RNvNtNtNtCs6ttZxmOuonq_17visualsign_solana4core7txtypes2v019decode_v0_transfers
FNDA:3,_RNvNtNtNtCs6ttZxmOuonq_17visualsign_solana4core7txtypes2v022decode_v0_instructions
FNDA:1,_RNvNtNtNtCs6ttZxmOuonq_17visualsign_solana4core7txtypes2v033create_address_lookup_table_field
FNDA:29,_RNCNCNvNtNtNtCs6ttZxmOuonq_17visualsign_solana4core7txtypes2v022decode_v0_instructionss_00Bb_
FNDA:0,_RNCNvNtNtNtCs6ttZxmOuonq_17visualsign_solana4core7txtypes2v019decode_v0_transfers0B9_
FNDA:0,_RNCNvNtNtNtCs6ttZxmOuonq_17visualsign_solana4core7txtypes2v019decode_v0_transferss_0B9_
FNDA:21,_RNCNvNtNtNtCs6ttZxmOuonq_17visualsign_solana4core7txtypes2v022decode_v0_instructions0B9_
FNDA:5,_RNCNvNtNtNtCs6ttZxmOuonq_17visualsign_solana4core7txtypes2v022decode_v0_instructionss0_0B9_
FNDA:5,_RNCNvNtNtNtCs6ttZxmOuonq_17visualsign_solana4core7txtypes2v022decode_v0_instructionss1_0B9_
FNDA:5,_RNCNvNtNtNtCs6ttZxmOuonq_17visualsign_solana4core7txtypes2v022decode_v0_instructionss_0B9_
FNDA:2,_RNCNvNtNtNtCs6ttZxmOuonq_17visualsign_solana4core7txtypes2v033create_address_lookup_table_field0B9_
FNF:11
FNH:9
DA:15,5
DA:16,5
DA:17,5
DA:21,5
DA:22,0
DA:23,0
DA:24,0
DA:25,0
DA:27,5
DA:29,5
DA:30,5
DA:31,0
DA:32,0
DA:33,0
DA:34,0
DA:36,5
DA:39,5
DA:40,5
DA:41,5
DA:42,5
DA:44,5
DA:46,5
DA:47,2
DA:48,2
DA:49,2
DA:50,2
DA:51,2
DA:52,2
DA:53,2
DA:54,2
DA:55,2
DA:56,2
DA:57,2
DA:58,2
DA:59,2
DA:60,2
DA:61,2
DA:62,2
DA:63,2
DA:64,2
DA:65,2
DA:66,2
DA:67,2
DA:68,2
DA:69,2
DA:70,2
DA:71,2
DA:74,5
DA:75,1
DA:76,1
DA:77,1
DA:78,1
DA:79,1
DA:80,1
DA:81,1
DA:82,1
DA:83,1
DA:84,1
DA:85,1
DA:86,1
DA:87,1
DA:88,1
DA:89,1
DA:90,1
DA:91,1
DA:92,1
DA:93,1
DA:94,1
DA:95,1
DA:96,1
DA:97,1
DA:98,1
DA:99,1
DA:100,1
DA:101,1
DA:102,1
DA:103,1
DA:104,1
DA:105,1
DA:106,0
DA:107,0
DA:109,5
DA:110,5
DA:114,3
DA:115,3
DA:116,3
DA:118,3
DA:119,3
DA:120,21
DA:125,3
DA:129,3
DA:130,3
DA:131,3
DA:132,5
DA:134,5
DA:135,5
DA:137,5
DA:138,5
DA:139,5
DA:140,29
DA:142,29
DA:143,29
DA:146,0
DA:148,29
DA:149,5
DA:151,5
DA:152,5
DA:153,5
DA:154,5
DA:155,5
DA:158,0
DA:160,5
DA:161,3
DA:164,3
DA:165,0
DA:166,0
DA:167,0
DA:168,0
DA:169,0
DA:170,3
DA:172,3
DA:173,3
DA:174,3
DA:175,5
DA:177,5
DA:178,5
DA:179,5
DA:180,5
DA:181,5
DA:183,5
DA:184,5
DA:185,5
DA:187,5
DA:188,5
DA:189,3
DA:190,3
DA:194,1
DA:195,1
DA:196,1
DA:198,1
DA:199,1
DA:200,1
DA:201,2
DA:202,1
DA:203,1
DA:206,1
DA:207,1
DA:208,1
DA:209,1
DA:210,1
DA:211,1
DA:212,1
DA:213,1
DA:214,1
DA:215,1
DA:216,1
DA:217,1
DA:218,1
DA:221,2
DA:222,2
DA:223,0
DA:225,2
DA:228,2
DA:229,2
DA:230,2
DA:231,2
DA:232,2
DA:233,2
DA:234,2
DA:235,2
DA:236,2
DA:237,2
DA:238,2
DA:239,2
DA:240,2
DA:243,2
DA:244,1
DA:247,1
DA:248,1
DA:249,0
DA:251,1
DA:254,1
DA:255,1
DA:256,1
DA:257,1
DA:258,1
DA:259,1
DA:260,1
DA:262,1
DA:263,1
DA:265,1
DA:267,2
DA:268,2
DA:271,2
DA:272,2
DA:273,0
DA:275,2
DA:278,2
DA:279,2
DA:280,2
DA:281,2
DA:282,2
DA:283,2
DA:284,2
DA:286,2
DA:287,2
DA:289,0
DA:293,1
DA:294,1
DA:295,1
DA:296,1
DA:297,1
DA:298,1
DA:299,1
DA:300,1
DA:301,1
DA:302,1
DA:303,1
DA:304,1
DA:305,1
DA:308,3
DA:309,2
DA:310,2
DA:311,2
DA:312,2
DA:313,2
DA:314,2
DA:315,2
DA:316,2
DA:317,2
DA:318,2
DA:319,2
DA:320,2
DA:321,2
DA:322,2
DA:324,1
DA:325,1
DA:326,1
DA:328,1
DA:329,1
DA:330,1
DA:334,1
DA:335,1
DA:336,1
DA:337,1
DA:339,1
DA:340,1
DA:341,1
DA:343,1
DA:344,1
DA:345,1
DA:346,1
DA:347,0
DA:349,1
DA:353,1
DA:354,1
DA:357,1
BRF:0
BRH:0
LF:267
LH:241
end_of_record
SF:/home/user/projects/visualsign-parser/src/chain_parsers/visualsign-solana/src/core/visualsign.rs
FN:483,_RNCNvNtNtNtCs6ttZxmOuonq_17visualsign_solana4core10visualsign5testss_19test_v0_transaction0B9_
FN:416,_RNCNvNtNtNtCs6ttZxmOuonq_17visualsign_solana4core10visualsign5testss_29test_jupiter_swap_transaction0B9_
FN:1053,_RNCNvNtNtNtCs6ttZxmOuonq_17visualsign_solana4core10visualsign5testss_29test_unknown_program_fallback0B9_
FN:332,_RNCNvNtNtNtCs6ttZxmOuonq_17visualsign_solana4core10visualsign5testss_30test_solana_transaction_to_vsp0B9_
FN:797,_RNCNvNtNtNtCs6ttZxmOuonq_17visualsign_solana4core10visualsign5testss_31test_v0_transfer_with_real_data0B9_
FN:951,_RNCNvNtNtNtCs6ttZxmOuonq_17visualsign_solana4core10visualsign5testss_35test_spl_token_tokenkeg_recognition0B9_
FN:630,_RNCNvNtNtNtCs6ttZxmOuonq_17visualsign_solana4core10visualsign5testss_37test_v0_vs_legacy_transfer_comparison0B9_
FN:674,_RNCNvNtNtNtCs6ttZxmOuonq_17visualsign_solana4core10visualsign5testss_37test_v0_vs_legacy_transfer_comparisons0_0B9_
FN:672,_RNCNvNtNtNtCs6ttZxmOuonq_17visualsign_solana4core10visualsign5testss_37test_v0_vs_legacy_transfer_comparisons_0B9_
FN:437,_RNvNtNtNtCs6ttZxmOuonq_17visualsign_solana4core10visualsign5testss_19test_v0_transaction
FN:567,_RNvNtNtNtCs6ttZxmOuonq_17visualsign_solana4core10visualsign5testss_25test_v0_transfer_decoding
FN:864,_RNvNtNtNtCs6ttZxmOuonq_17visualsign_solana4core10visualsign5testss_28test_legacy_fallback_parsing
FN:359,_RNvNtNtNtCs6ttZxmOuonq_17visualsign_solana4core10visualsign5testss_29test_jupiter_swap_transaction
FN:344,_RNvNtNtNtCs6ttZxmOuonq_17visualsign_solana4core10visualsign5testss_29test_solana_transaction_trait
FN:986,_RNvNtNtNtCs6ttZxmOuonq_17visualsign_solana4core10visualsign5testss_29test_unknown_program_fallback
FN:319,_RNvNtNtNtCs6ttZxmOuonq_17visualsign_solana4core10visualsign5testss_30test_solana_transaction_to_vsp
FN:710,_RNvNtNtNtCs6ttZxmOuonq_17visualsign_solana4core10visualsign5testss_31test_v0_transfer_with_real_data
FN:906,_RNvNtNtNtCs6ttZxmOuonq_17visualsign_solana4core10visualsign5testss_32test_invalid_transaction_parsing
FN:922,_RNvNtNtNtCs6ttZxmOuonq_17visualsign_solana4core10visualsign5testss_35test_spl_token_tokenkeg_recognition
FN:604,_RNvNtNtNtCs6ttZxmOuonq_17visualsign_solana4core10visualsign5testss_37test_v0_vs_legacy_transfer_comparison
FN:499,_RNvNtNtNtCs6ttZxmOuonq_17visualsign_solana4core10visualsign5testss_40test_address_lookup_table_field_creation
FN:839,_RNvNtNtNtCs6ttZxmOuonq_17visualsign_solana4core10visualsign5testss_44test_transaction_auto_detection_v0_vs_legacy
FN:65,_RNvMs_NtNtCs6ttZxmOuonq_17visualsign_solana4core10visualsignNtB4_24SolanaTransactionWrapper10new_legacy
FN:73,_RNvMs_NtNtCs6ttZxmOuonq_17visualsign_solana4core10visualsignNtB4_24SolanaTransactionWrapper12inner_legacy
FN:69,_RNvMs_NtNtCs6ttZxmOuonq_17visualsign_solana4core10visualsignNtB4_24SolanaTransactionWrapper13new_versioned
FN:121,_RNvNtNtCs6ttZxmOuonq_17visualsign_solana4core10visualsign26transaction_to_visual_sign
FN:130,_RNvNtNtCs6ttZxmOuonq_17visualsign_solana4core10visualsign36versioned_transaction_to_visual_sign
FN:171,_RNCNvNtNtCs6ttZxmOuonq_17visualsign_solana4core10visualsign30convert_to_visual_sign_payload0B7_
FN:192,_RNCNvNtNtCs6ttZxmOuonq_17visualsign_solana4core10visualsign30convert_to_visual_sign_payloads0_0B7_
FN:179,_RNCNvNtNtCs6ttZxmOuonq_17visualsign_solana4core10visualsign30convert_to_visual_sign_payloads_0B7_
FN:281,_RNCNvNtNtCs6ttZxmOuonq_17visualsign_solana4core10visualsign33convert_v0_to_visual_sign_payload0B7_
FN:305,_RNCNvNtNtCs6ttZxmOuonq_17visualsign_solana4core10visualsign33convert_v0_to_visual_sign_payloads_0B7_
FN:36,_RNCNvXNtNtCs6ttZxmOuonq_17visualsign_solana4core10visualsignNtB4_24SolanaTransactionWrapperNtNtCs7bqwNgl0eIg_10visualsign8vsptrait11Transaction11from_string0B8_
FN:49,_RNCNvXNtNtCs6ttZxmOuonq_17visualsign_solana4core10visualsignNtB4_24SolanaTransactionWrapperNtNtCs7bqwNgl0eIg_10visualsign8vsptrait11Transaction11from_strings0_0B8_
FN:38,_RNCNvXNtNtCs6ttZxmOuonq_17visualsign_solana4core10visualsignNtB4_24SolanaTransactionWrapperNtNtCs7bqwNgl0eIg_10visualsign8vsptrait11Transaction11from_strings_0B8_
FN:80,_RNvMs_NtNtCs6ttZxmOuonq_17visualsign_solana4core10visualsignNtB4_24SolanaTransactionWrapper15inner_versioned
FN:149,_RNvNtNtCs6ttZxmOuonq_17visualsign_solana4core10visualsign30convert_to_visual_sign_payload
FN:222,_RNvNtNtCs6ttZxmOuonq_17visualsign_solana4core10visualsign33convert_v0_to_visual_sign_payload
FN:141,_RNvNtNtCs6ttZxmOuonq_17visualsign_solana4core10visualsign33transaction_string_to_visual_sign
FN:200,_RNvNtNtCs6ttZxmOuonq_17visualsign_solana4core10visualsign40convert_versioned_to_visual_sign_payload
FN:29,_RNvXNtNtCs6ttZxmOuonq_17visualsign_solana4core10visualsignNtB2_24SolanaTransactionWrapperNtNtCs7bqwNgl0eIg_10visualsign8vsptrait11Transaction11from_string
FN:53,_RNvXNtNtCs6ttZxmOuonq_17visualsign_solana4core10visualsignNtB2_24SolanaTransactionWrapperNtNtCs7bqwNgl0eIg_10visualsign8vsptrait11Transaction16transaction_type
FN:92,_RNvXs0_NtNtCs6ttZxmOuonq_17visualsign_solana4core10visualsignNtB5_25SolanaVisualSignConverterINtNtCs7bqwNgl0eIg_10visualsign8vsptrait19VisualSignConverterNtB5_24SolanaTransactionWrapperE22to_visual_sign_payload
FNDA:1,_RNCNvNtNtNtCs6ttZxmOuonq_17visualsign_solana4core10visualsign5testss_19test_v0_transaction0B9_
FNDA:7,_RNCNvNtNtNtCs6ttZxmOuonq_17visualsign_solana4core10visualsign5testss_29test_jupiter_swap_transaction0B9_
FNDA:3,_RNCNvNtNtNtCs6ttZxmOuonq_17visualsign_solana4core10visualsign5testss_29test_unknown_program_fallback0B9_
FNDA:1,_RNCNvNtNtNtCs6ttZxmOuonq_17visualsign_solana4core10visualsign5testss_30test_solana_transaction_to_vsp0B9_
FNDA:4,_RNCNvNtNtNtCs6ttZxmOuonq_17visualsign_solana4core10visualsign5testss_31test_v0_transfer_with_real_data0B9_
FNDA:3,_RNCNvNtNtNtCs6ttZxmOuonq_17visualsign_solana4core10visualsign5testss_35test_spl_token_tokenkeg_recognition0B9_
FNDA:2,_RNCNvNtNtNtCs6ttZxmOuonq_17visualsign_solana4core10visualsign5testss_37test_v0_vs_legacy_transfer_comparison0B9_
FNDA:4,_RNCNvNtNtNtCs6ttZxmOuonq_17visualsign_solana4core10visualsign5testss_37test_v0_vs_legacy_transfer_comparisons0_0B9_
FNDA:3,_RNCNvNtNtNtCs6ttZxmOuonq_17visualsign_solana4core10visualsign5testss_37test_v0_vs_legacy_transfer_comparisons_0B9_
FNDA:1,_RNvNtNtNtCs6ttZxmOuonq_17visualsign_solana4core10visualsign5testss_19test_v0_transaction
FNDA:1,_RNvNtNtNtCs6ttZxmOuonq_17visualsign_solana4core10visualsign5testss_25test_v0_transfer_decoding
FNDA:1,_RNvNtNtNtCs6ttZxmOuonq_17visualsign_solana4core10visualsign5testss_28test_legacy_fallback_parsing
FNDA:1,_RNvNtNtNtCs6ttZxmOuonq_17visualsign_solana4core10visualsign5testss_29test_jupiter_swap_transaction
FNDA:1,_RNvNtNtNtCs6ttZxmOuonq_17visualsign_solana4core10visualsign5testss_29test_solana_transaction_trait
FNDA:1,_RNvNtNtNtCs6ttZxmOuonq_17visualsign_solana4core10visualsign5testss_29test_unknown_program_fallback
FNDA:1,_RNvNtNtNtCs6ttZxmOuonq_17visualsign_solana4core10visualsign5testss_30test_solana_transaction_to_vsp
FNDA:1,_RNvNtNtNtCs6ttZxmOuonq_17visualsign_solana4core10visualsign5testss_31test_v0_transfer_with_real_data
FNDA:1,_RNvNtNtNtCs6ttZxmOuonq_17visualsign_solana4core10visualsign5testss_32test_invalid_transaction_parsing
FNDA:1,_RNvNtNtNtCs6ttZxmOuonq_17visualsign_solana4core10visualsign5testss_35test_spl_token_tokenkeg_recognition
FNDA:1,_RNvNtNtNtCs6ttZxmOuonq_17visualsign_solana4core10visualsign5testss_37test_v0_vs_legacy_transfer_comparison
FNDA:1,_RNvNtNtNtCs6ttZxmOuonq_17visualsign_solana4core10visualsign5testss_40test_address_lookup_table_field_creation
FNDA:1,_RNvNtNtNtCs6ttZxmOuonq_17visualsign_solana4core10visualsign5testss_44test_transaction_auto_detection_v0_vs_legacy
FNDA:0,_RNvMs_NtNtCs6ttZxmOuonq_17visualsign_solana4core10visualsignNtB4_24SolanaTransactionWrapper10new_legacy
FNDA:0,_RNvMs_NtNtCs6ttZxmOuonq_17visualsign_solana4core10visualsignNtB4_24SolanaTransactionWrapper12inner_legacy
FNDA:0,_RNvMs_NtNtCs6ttZxmOuonq_17visualsign_solana4core10visualsignNtB4_24SolanaTransactionWrapper13new_versioned
FNDA:0,_RNvNtNtCs6ttZxmOuonq_17visualsign_solana4core10visualsign26transaction_to_visual_sign
FNDA:0,_RNvNtNtCs6ttZxmOuonq_17visualsign_solana4core10visualsign36versioned_transaction_to_visual_sign
FNDA:5,_RNCNvNtNtCs6ttZxmOuonq_17visualsign_solana4core10visualsign30convert_to_visual_sign_payload0B7_
FNDA:1,_RNCNvNtNtCs6ttZxmOuonq_17visualsign_solana4core10visualsign30convert_to_visual_sign_payloads0_0B7_
FNDA:23,_RNCNvNtNtCs6ttZxmOuonq_17visualsign_solana4core10visualsign30convert_to_visual_sign_payloads_0B7_
FNDA:2,_RNCNvNtNtCs6ttZxmOuonq_17visualsign_solana4core10visualsign33convert_v0_to_visual_sign_payload0B7_
FNDA:0,_RNCNvNtNtCs6ttZxmOuonq_17visualsign_solana4core10visualsign33convert_v0_to_visual_sign_payloads_0B7_
FNDA:2,_RNCNvXNtNtCs6ttZxmOuonq_17visualsign_solana4core10visualsignNtB4_24SolanaTransactionWrapperNtNtCs7bqwNgl0eIg_10visualsign8vsptrait11Transaction11from_string0B8_
FNDA:1,_RNCNvXNtNtCs6ttZxmOuonq_17visualsign_solana4core10visualsignNtB4_24SolanaTransactionWrapperNtNtCs7bqwNgl0eIg_10visualsign8vsptrait11Transaction11from_strings0_0B8_
FNDA:0,_RNCNvXNtNtCs6ttZxmOuonq_17visualsign_solana4core10visualsignNtB4_24SolanaTransactionWrapperNtNtCs7bqwNgl0eIg_10visualsign8vsptrait11Transaction11from_strings_0B8_
FNDA:4,_RNvMs_NtNtCs6ttZxmOuonq_17visualsign_solana4core10visualsignNtB4_24SolanaTransactionWrapper15inner_versioned
FNDA:7,_RNvNtNtCs6ttZxmOuonq_17visualsign_solana4core10visualsign30convert_to_visual_sign_payload
FNDA:3,_RNvNtNtCs6ttZxmOuonq_17visualsign_solana4core10visualsign33convert_v0_to_visual_sign_payload
FNDA:1,_RNvNtNtCs6ttZxmOuonq_17visualsign_solana4core10visualsign33transaction_string_to_visual_sign
FNDA:9,_RNvNtNtCs6ttZxmOuonq_17visualsign_solana4core10visualsign40convert_versioned_to_visual_sign_payload
FNDA:16,_RNvXNtNtCs6ttZxmOuonq_17visualsign_solana4core10visualsignNtB2_24SolanaTransactionWrapperNtNtCs7bqwNgl0eIg_10visualsign8vsptrait11Transaction11from_string
FNDA:5,_RNvXNtNtCs6ttZxmOuonq_17visualsign_solana4core10visualsignNtB2_24SolanaTransactionWrapperNtNtCs7bqwNgl0eIg_10visualsign8vsptrait11Transaction16transaction_type
FNDA:10,_RNvXs0_NtNtCs6ttZxmOuonq_17visualsign_solana4core10visualsignNtB5_25SolanaVisualSignConverterINtNtCs7bqwNgl0eIg_10visualsign8vsptrait19VisualSignConverterNtB5_24SolanaTransactionWrapperE22to_visual_sign_payload
FNF:43
FNH:36
DA:29,16
DA:31,16
DA:33,16
DA:34,16
DA:35,16
DA:36,16
DA:38,0
DA:43,14
DA:44,13
DA:45,1
DA:48,1
DA:49,1
DA:50,1
DA:51,16
DA:53,5
DA:54,5
DA:55,0
DA:56,5
DA:57,3
DA:58,2
DA:61,5
DA:65,0
DA:66,0
DA:67,0
DA:69,0
DA:70,0
DA:71,0
DA:73,0
DA:74,0
DA:75,0
DA:76,0
DA:78,0
DA:80,4
DA:81,4
DA:82,0
DA:83,4
DA:85,4
DA:92,10
DA:93,10
DA:94,10
DA:95,10
DA:96,10
DA:97,10
DA:98,1
DA:100,1
DA:101,1
DA:102,1
DA:103,1
DA:106,9
DA:108,9
DA:109,9
DA:110,9
DA:111,9
DA:115,10
DA:121,0
DA:122,0
DA:123,0
DA:124,0
DA:125,0
DA:126,0
DA:127,0
DA:130,0
DA:131,0
DA:132,0
DA:133,0
DA:134,0
DA:135,0
DA:136,0
DA:138,0
DA:141,1
DA:142,1
DA:143,1
DA:144,1
DA:145,1
DA:146,1
DA:149,7
DA:150,7
DA:151,7
DA:152,7
DA:153,7
DA:154,7
DA:156,7
DA:157,7
DA:158,7
DA:159,7
DA:160,7
DA:161,7
DA:162,7
DA:163,7
DA:164,7
DA:166,7
DA:167,6
DA:168,6
DA:169,6
DA:170,6
DA:171,6
DA:173,1
DA:176,7
DA:177,7
DA:178,7
DA:179,23
DA:183,7
DA:186,7
DA:188,7
DA:190,7
DA:192,7
DA:193,7
DA:194,7
DA:195,7
DA:197,7
DA:200,9
DA:201,9
DA:202,9
DA:203,9
DA:204,9
DA:205,9
DA:206,6
DA:208,6
DA:209,6
DA:210,6
DA:211,6
DA:212,6
DA:214,3
DA:216,3
DA:219,9
DA:222,3
DA:223,3
DA:224,3
DA:225,3
DA:226,3
DA:227,3
DA:229,3
DA:231,3
DA:232,3
DA:233,3
DA:234,3
DA:235,3
DA:236,3
DA:237,3
DA:238,3
DA:239,3
DA:242,3
DA:243,0
DA:244,0
DA:245,3
DA:249,3
DA:250,3
DA:251,5
DA:252,5
DA:253,0
DA:257,5
DA:260,0
DA:261,0
DA:262,0
DA:263,0
DA:264,0
DA:265,0
DA:266,0
DA:267,0
DA:268,0
DA:269,0
DA:270,0
DA:271,0
DA:275,3
DA:276,3
DA:277,3
DA:278,3
DA:279,3
DA:280,3
DA:281,3
DA:284,0
DA:285,0
DA:286,0
DA:287,0
DA:288,0
DA:289,0
DA:290,0
DA:291,0
DA:292,0
DA:293,0
DA:294,0
DA:295,0
DA:297,0
DA:300,3
DA:301,3
DA:303,3
DA:305,3
DA:306,3
DA:307,3
DA:308,3
DA:310,3
DA:319,1
DA:322,1
DA:323,1
DA:324,1
DA:325,1
DA:326,1
DA:327,1
DA:328,1
DA:330,1
DA:332,1
DA:333,1
DA:334,1
DA:335,1
DA:336,1
DA:339,1
DA:340,1
DA:341,1
DA:344,1
DA:345,1
DA:346,1
DA:347,1
DA:348,1
DA:349,1
DA:351,1
DA:352,1
DA:354,1
DA:355,1
DA:356,1
DA:359,1
DA:361,1
DA:363,1
DA:364,1
DA:366,1
DA:369,1
DA:370,1
DA:371,1
DA:372,1
DA:373,1
DA:374,1
DA:377,1
DA:378,0
DA:379,1
DA:380,1
DA:382,1
DA:385,1
DA:386,1
DA:387,1
DA:388,1
DA:391,1
DA:392,1
DA:394,1
DA:397,1
DA:398,1
DA:399,1
DA:400,1
DA:403,1
DA:404,1
DA:405,1
DA:408,1
DA:409,1
DA:410,1
DA:413,1
DA:416,7
DA:417,7
DA:418,7
DA:419,6
DA:420,6
DA:421,6
DA:422,7
DA:425,1
DA:429,1
DA:430,1
DA:431,1
DA:433,1
DA:434,1
DA:437,1
DA:439,1
DA:441,1
DA:442,1
DA:444,1
DA:447,1
DA:450,1
DA:451,1
DA:452,1
DA:453,1
DA:454,1
DA:455,1
DA:458,1
DA:459,0
DA:460,1
DA:461,1
DA:463,1
DA:466,1
DA:467,1
DA:468,1
DA:469,1
DA:472,1
DA:473,1
DA:475,1
DA:478,1
DA:479,1
DA:480,1
DA:483,1
DA:484,1
DA:485,1
DA:486,1
DA:489,1
DA:491,1
DA:492,1
DA:493,1
DA:495,1
DA:496,1
DA:499,1
DA:504,1
DA:507,1
DA:508,1
DA:509,1
DA:510,1
DA:511,1
DA:513,1
DA:514,1
DA:515,1
DA:516,1
DA:517,1
DA:519,1
DA:522,1
DA:524,1
DA:526,1
DA:527,1
DA:529,1
DA:530,1
DA:531,1
DA:532,0
DA:536,1
DA:537,1
DA:540,1
DA:541,1
DA:542,1
DA:543,0
DA:544,0
DA:548,1
DA:549,1
DA:550,1
DA:552,1
DA:553,1
DA:554,0
DA:555,0
DA:557,1
DA:558,1
DA:559,1
DA:562,0
DA:564,1
DA:567,1
DA:569,1
DA:571,1
DA:572,1
DA:574,1
DA:575,1
DA:577,1
DA:579,1
DA:580,1
DA:581,1
DA:582,1
DA:583,1
DA:585,1
DA:586,0
DA:587,0
DA:588,0
DA:589,0
DA:590,0
DA:591,0
DA:593,0
DA:594,0
DA:595,0
DA:596,0
DA:599,0
DA:601,1
DA:604,1
DA:606,1
DA:607,1
DA:608,1
DA:610,1
DA:611,1
DA:612,1
DA:614,1
DA:615,1
DA:616,1
DA:617,1
DA:618,1
DA:619,1
DA:620,1
DA:623,1
DA:624,1
DA:627,1
DA:628,1
DA:629,1
DA:630,2
DA:632,1
DA:633,1
DA:634,1
DA:639,4
DA:640,4
DA:641,4
DA:642,4
DA:643,4
DA:644,4
DA:645,4
DA:646,4
DA:650,1
DA:651,1
DA:653,1
DA:654,1
DA:656,1
DA:657,1
DA:658,1
DA:659,1
DA:660,1
DA:661,1
DA:662,1
DA:665,1
DA:666,1
DA:669,1
DA:670,1
DA:671,1
DA:672,3
DA:674,4
DA:675,4
DA:676,4
DA:677,4
DA:679,1
DA:680,1
DA:681,1
DA:687,4
DA:688,4
DA:689,4
DA:690,4
DA:691,4
DA:692,4
DA:693,4
DA:694,4
DA:697,1
DA:698,1
DA:699,1
DA:703,1
DA:704,1
DA:705,0
DA:707,1
DA:710,1
DA:720,1
DA:721,1
DA:722,1
DA:723,1
DA:724,1
DA:726,1
DA:727,1
DA:728,1
DA:729,1
DA:730,1
DA:731,1
DA:732,1
DA:733,1
DA:734,1
DA:735,1
DA:736,1
DA:737,1
DA:738,1
DA:739,1
DA:740,1
DA:743,1
DA:744,1
DA:745,1
DA:750,1
DA:751,1
DA:752,1
DA:753,1
DA:755,1
DA:758,1
DA:759,1
DA:760,1
DA:761,1
DA:762,1
DA:765,1
DA:766,0
DA:767,0
DA:768,0
DA:769,0
DA:770,1
DA:771,1
DA:772,1
DA:773,1
DA:774,1
DA:775,1
DA:776,1
DA:777,1
DA:781,1
DA:782,1
DA:783,1
DA:784,1
DA:785,1
DA:786,1
DA:787,1
DA:790,1
DA:791,1
DA:792,1
DA:793,1
DA:794,1
DA:797,4
DA:798,4
DA:799,4
DA:800,4
DA:802,1
DA:805,4
DA:806,4
DA:807,4
DA:808,4
DA:809,4
DA:810,4
DA:811,4
DA:812,4
DA:815,1
DA:816,1
DA:817,0
DA:820,0
DA:821,0
DA:825,0
DA:826,0
DA:827,0
DA:828,0
DA:829,0
DA:830,0
DA:831,0
DA:832,0
DA:835,1
DA:836,1
DA:839,1
DA:841,1
DA:844,1
DA:845,1
DA:846,1
DA:847,1
DA:848,1
DA:849,0
DA:852,1
DA:853,1
DA:855,1
DA:856,1
DA:857,1
DA:858,1
DA:859,1
DA:860,0
DA:861,1
DA:864,1
DA:876,1
DA:877,1
DA:878,1
DA:879,1
DA:880,1
DA:881,1
DA:882,1
DA:883,1
DA:884,1
DA:885,1
DA:886,1
DA:887,1
DA:888,1
DA:891,1
DA:892,1
DA:895,1
DA:898,1
DA:899,1
DA:900,1
DA:901,0
DA:903,1
DA:906,1
DA:908,1
DA:909,1
DA:910,1
DA:913,1
DA:914,1
DA:915,1
DA:916,1
DA:917,0
DA:919,1
DA:922,1
DA:926,1
DA:928,1
DA:929,1
DA:931,1
DA:932,1
DA:933,1
DA:934,1
DA:935,1
DA:936,1
DA:937,1
DA:940,1
DA:941,1
DA:942,0
DA:945,1
DA:948,1
DA:949,1
DA:950,1
DA:951,3
DA:952,1
DA:954,1
DA:955,1
DA:956,0
DA:960,1
DA:961,1
DA:963,0
DA:967,1
DA:968,1
DA:969,1
DA:970,0
DA:975,1
DA:976,1
DA:977,0
DA:980,1
DA:981,1
DA:982,1
DA:983,1
DA:986,1
DA:997,1
DA:998,1
DA:999,1
DA:1000,1
DA:1001,1
DA:1002,1
DA:1003,1
DA:1004,1
DA:1005,1
DA:1006,1
DA:1008,1
DA:1011,1
DA:1012,1
DA:1013,1
DA:1014,1
DA:1015,1
DA:1016,1
DA:1018,1
DA:1019,1
DA:1020,1
DA:1021,1
DA:1022,1
DA:1023,1
DA:1024,1
DA:1025,1
DA:1026,1
DA:1027,1
DA:1029,1
DA:1030,1
DA:1031,1
DA:1032,1
DA:1034,1
DA:1035,1
DA:1036,1
DA:1037,1
DA:1038,1
DA:1039,1
DA:1042,1
DA:1043,1
DA:1044,0
DA:1047,1
DA:1050,1
DA:1051,1
DA:1052,1
DA:1053,3
DA:1054,1
DA:1056,1
DA:1057,1
DA:1059,0
DA:1063,1
DA:1064,1
DA:1065,1
DA:1066,1
DA:1067,0
DA:1071,1
DA:1072,1
DA:1073,1
DA:1074,0
DA:1079,1
DA:1080,1
DA:1081,0
DA:1084,1
DA:1085,1
DA:1086,1
DA:1087,1
BRF:0
BRH:0
LF:694
LH:586
end_of_record
SF:/home/user/projects/visualsign-parser/src/chain_parsers/visualsign-solana/src/lib.rs
FN:25,_RNCNvNtCs6ttZxmOuonq_17visualsign_solana5testss_30test_solana_charset_validation0B5_
FN:36,_RNCNvNtCs6ttZxmOuonq_17visualsign_solana5testss_30test_solana_charset_validations_0B5_
FN:15,_RNvNtCs6ttZxmOuonq_17visualsign_solana5testss_30test_solana_charset_validation
FN:75,_RNvNtCs6ttZxmOuonq_17visualsign_solana5testss_37test_solana_decode_no_unicode_escapes
FNDA:0,_RNCNvNtCs6ttZxmOuonq_17visualsign_solana5testss_30test_solana_charset_validation0B5_
FNDA:0,_RNCNvNtCs6ttZxmOuonq_17visualsign_solana5testss_30test_solana_charset_validations_0B5_
FNDA:1,_RNvNtCs6ttZxmOuonq_17visualsign_solana5testss_30test_solana_charset_validation
FNDA:1,_RNvNtCs6ttZxmOuonq_17visualsign_solana5testss_37test_solana_decode_no_unicode_escapes
FNF:4
FNH:2
DA:15,1
DA:17,1
DA:18,1
DA:19,1
DA:20,1
DA:22,2
DA:24,1
DA:25,1
DA:28,1
DA:29,1
DA:30,1
DA:31,1
DA:32,1
DA:33,1
DA:34,1
DA:36,1
DA:39,1
DA:40,1
DA:41,1
DA:42,0
DA:44,0
DA:48,1
DA:49,1
DA:50,1
DA:51,0
DA:53,0
DA:56,1
DA:59,1
DA:60,1
DA:61,0
DA:65,1
DA:66,1
DA:67,0
DA:70,1
DA:72,1
DA:75,1
DA:76,1
DA:79,1
DA:80,1
DA:83,1
DA:84,1
DA:85,1
DA:86,1
DA:87,1
DA:88,1
DA:89,1
DA:91,1
DA:94,1
DA:95,1
DA:96,1
DA:98,1
DA:99,1
DA:100,1
DA:101,1
DA:102,1
DA:103,1
BRF:0
BRH:0
LF:58
LH:50
end_of_record
SF:/home/user/projects/visualsign-parser/src/chain_parsers/visualsign-solana/src/presets/associated_token_account/config.rs
FN:10,_RNvXNtNtNtCs6ttZxmOuonq_17visualsign_solana7presets24associated_token_account6configNtB2_28AssociatedTokenAccountConfigNtNtB8_4core23SolanaIntegrationConfig4data
FN:12,_RNCNvXNtNtNtCs6ttZxmOuonq_17visualsign_solana7presets24associated_token_account6configNtB4_28AssociatedTokenAccountConfigNtNtBa_4core23SolanaIntegrationConfig4data0Ba_
FN:6,_RNvXNtNtNtCs6ttZxmOuonq_17visualsign_solana7presets24associated_token_account6configNtB2_28AssociatedTokenAccountConfigNtNtB8_4core23SolanaIntegrationConfig3new
FNDA:19,_RNvXNtNtNtCs6ttZxmOuonq_17visualsign_solana7presets24associated_token_account6configNtB2_28AssociatedTokenAccountConfigNtNtB8_4core23SolanaIntegrationConfig4data
FNDA:1,_RNCNvXNtNtNtCs6ttZxmOuonq_17visualsign_solana7presets24associated_token_account6configNtB4_28AssociatedTokenAccountConfigNtNtBa_4core23SolanaIntegrationConfig4data0Ba_
FNDA:0,_RNvXNtNtNtCs6ttZxmOuonq_17visualsign_solana7presets24associated_token_account6configNtB2_28AssociatedTokenAccountConfigNtNtB8_4core23SolanaIntegrationConfig3new
FNF:3
FNH:2
DA:6,0
DA:7,0
DA:8,0
DA:10,19
DA:12,19
DA:13,1
DA:14,1
DA:15,1
DA:16,1
DA:18,1
DA:20,1
DA:21,1
DA:22,19
BRF:0
BRH:0
LF:14
LH:11
end_of_record
SF:/home/user/projects/visualsign-parser/src/chain_parsers/visualsign-solana/src/presets/associated_token_account/mod.rs
FN:98,_RNvNtNtCs6ttZxmOuonq_17visualsign_solana7presets24associated_token_account21parse_ata_instruction
FN:110,_RNvNtNtCs6ttZxmOuonq_17visualsign_solana7presets24associated_token_account22format_ata_instruction
FN:89,_RNvXNtNtCs6ttZxmOuonq_17visualsign_solana7presets24associated_token_accountNtB2_32AssociatedTokenAccountVisualizerNtNtB6_4core21InstructionVisualizer10get_config
FN:23,_RNvXNtNtCs6ttZxmOuonq_17visualsign_solana7presets24associated_token_accountNtB2_32AssociatedTokenAccountVisualizerNtNtB6_4core21InstructionVisualizer21visualize_tx_commands
FN:93,_RNvXNtNtCs6ttZxmOuonq_17visualsign_solana7presets24associated_token_accountNtB2_32AssociatedTokenAccountVisualizerNtNtB6_4core21InstructionVisualizer4kind
FN:29,_RNCNvXNtNtCs6ttZxmOuonq_17visualsign_solana7presets24associated_token_accountNtB4_32AssociatedTokenAccountVisualizerNtNtB8_4core21InstructionVisualizer21visualize_tx_commands0B8_
FN:32,_RNCNvXNtNtCs6ttZxmOuonq_17visualsign_solana7presets24associated_token_accountNtB4_32AssociatedTokenAccountVisualizerNtNtB8_4core21InstructionVisualizer21visualize_tx_commandss_0B8_
FNDA:4,_RNvNtNtCs6ttZxmOuonq_17visualsign_solana7presets24associated_token_account21parse_ata_instruction
FNDA:4,_RNvNtNtCs6ttZxmOuonq_17visualsign_solana7presets24associated_token_account22format_ata_instruction
FNDA:19,_RNvXNtNtCs6ttZxmOuonq_17visualsign_solana7presets24associated_token_accountNtB2_32AssociatedTokenAccountVisualizerNtNtB6_4core21InstructionVisualizer10get_config
FNDA:4,_RNvXNtNtCs6ttZxmOuonq_17visualsign_solana7presets24associated_token_accountNtB2_32AssociatedTokenAccountVisualizerNtNtB6_4core21InstructionVisualizer21visualize_tx_commands
FNDA:8,_RNvXNtNtCs6ttZxmOuonq_17visualsign_solana7presets24associated_token_accountNtB2_32AssociatedTokenAccountVisualizerNtNtB6_4core21InstructionVisualizer4kind
FNDA:0,_RNCNvXNtNtCs6ttZxmOuonq_17visualsign_solana7presets24associated_token_accountNtB4_32AssociatedTokenAccountVisualizerNtNtB8_4core21InstructionVisualizer21visualize_tx_commands0B8_
FNDA:0,_RNCNvXNtNtCs6ttZxmOuonq_17visualsign_solana7presets24associated_token_accountNtB4_32AssociatedTokenAccountVisualizerNtNtB8_4core21InstructionVisualizer21visualize_tx_commandss_0B8_
FNF:7
FNH:5
DA:23,4
DA:24,4
DA:25,4
DA:26,4
DA:27,4
DA:28,4
DA:29,4
DA:31,4
DA:32,4
DA:34,4
DA:36,4
DA:37,4
DA:38,4
DA:39,4
DA:40,4
DA:41,4
DA:42,4
DA:43,4
DA:44,4
DA:45,4
DA:46,4
DA:47,4
DA:48,4
DA:49,4
DA:50,4
DA:52,4
DA:53,4
DA:54,4
DA:55,4
DA:56,4
DA:57,4
DA:59,4
DA:60,4
DA:61,4
DA:62,4
DA:63,4
DA:64,4
DA:65,4
DA:66,4
DA:67,4
DA:68,4
DA:70,4
DA:71,4
DA:73,4
DA:76,4
DA:77,4
DA:78,4
DA:79,4
DA:80,4
DA:81,4
DA:82,4
DA:83,4
DA:84,4
DA:85,4
DA:86,4
DA:87,4
DA:89,19
DA:90,19
DA:91,19
DA:93,8
DA:94,8
DA:95,8
DA:98,4
DA:99,4
DA:100,0
DA:101,4
DA:102,4
DA:103,0
DA:104,4
DA:105,0
DA:106,0
DA:108,4
DA:110,4
DA:111,4
DA:112,0
DA:114,4
DA:117,0
DA:120,4
BRF:0
BRH:0
LF:80
LH:72
end_of_record
SF:/home/user/projects/visualsign-parser/src/chain_parsers/visualsign-solana/src/presets/compute_budget/config.rs
FN:12,_RNCNvXNtNtNtCs6ttZxmOuonq_17visualsign_solana7presets14compute_budget6configNtB4_19ComputeBudgetConfigNtNtBa_4core23SolanaIntegrationConfig4data0Ba_
FN:6,_RNvXNtNtNtCs6ttZxmOuonq_17visualsign_solana7presets14compute_budget6configNtB2_19ComputeBudgetConfigNtNtB8_4core23SolanaIntegrationConfig3new
FN:10,_RNvXNtNtNtCs6ttZxmOuonq_17visualsign_solana7presets14compute_budget6configNtB2_19ComputeBudgetConfigNtNtB8_4core23SolanaIntegrationConfig4data
FNDA:1,_RNCNvXNtNtNtCs6ttZxmOuonq_17visualsign_solana7presets14compute_budget6configNtB4_19ComputeBudgetConfigNtNtBa_4core23SolanaIntegrationConfig4data0Ba_
FNDA:0,_RNvXNtNtNtCs6ttZxmOuonq_17visualsign_solana7presets14compute_budget6configNtB2_19ComputeBudgetConfigNtNtB8_4core23SolanaIntegrationConfig3new
FNDA:15,_RNvXNtNtNtCs6ttZxmOuonq_17visualsign_solana7presets14compute_budget6configNtB2_19ComputeBudgetConfigNtNtB8_4core23SolanaIntegrationConfig4data
FNF:3
FNH:2
DA:6,0
DA:7,0
DA:8,0
DA:10,15
DA:12,15
DA:13,1
DA:14,1
DA:15,1
DA:16,1
DA:18,1
DA:20,1
DA:21,1
DA:22,15
BRF:0
BRH:0
LF:14
LH:11
end_of_record
SF:/home/user/projects/visualsign-parser/src/chain_parsers/visualsign-solana/src/presets/compute_budget/mod.rs
FN:30,_RNCNvXNtNtCs6ttZxmOuonq_17visualsign_solana7presets14compute_budgetNtB4_23ComputeBudgetVisualizerNtNtB8_4core21InstructionVisualizer21visualize_tx_commands0B8_
FN:33,_RNCNvXNtNtCs6ttZxmOuonq_17visualsign_solana7presets14compute_budgetNtB4_23ComputeBudgetVisualizerNtNtB8_4core21InstructionVisualizer21visualize_tx_commandss_0B8_
FN:104,_RNvNtNtCs6ttZxmOuonq_17visualsign_solana7presets14compute_budget33format_compute_budget_instruction
FN:122,_RNvNtNtCs6ttZxmOuonq_17visualsign_solana7presets14compute_budget37create_compute_budget_expanded_fields
FN:95,_RNvXNtNtCs6ttZxmOuonq_17visualsign_solana7presets14compute_budgetNtB2_23ComputeBudgetVisualizerNtNtB6_4core21InstructionVisualizer10get_config
FN:24,_RNvXNtNtCs6ttZxmOuonq_17visualsign_solana7presets14compute_budgetNtB2_23ComputeBudgetVisualizerNtNtB6_4core21InstructionVisualizer21visualize_tx_commands
FN:99,_RNvXNtNtCs6ttZxmOuonq_17visualsign_solana7presets14compute_budgetNtB2_23ComputeBudgetVisualizerNtNtB6_4core21InstructionVisualizer4kind
FNDA:0,_RNCNvXNtNtCs6ttZxmOuonq_17visualsign_solana7presets14compute_budgetNtB4_23ComputeBudgetVisualizerNtNtB8_4core21InstructionVisualizer21visualize_tx_commands0B8_
FNDA:0,_RNCNvXNtNtCs6ttZxmOuonq_17visualsign_solana7presets14compute_budgetNtB4_23ComputeBudgetVisualizerNtNtB8_4core21InstructionVisualizer21visualize_tx_commandss_0B8_
FNDA:4,_RNvNtNtCs6ttZxmOuonq_17visualsign_solana7presets14compute_budget33format_compute_budget_instruction
FNDA:4,_RNvNtNtCs6ttZxmOuonq_17visualsign_solana7presets14compute_budget37create_compute_budget_expanded_fields
FNDA:15,_RNvXNtNtCs6ttZxmOuonq_17visualsign_solana7presets14compute_budgetNtB2_23ComputeBudgetVisualizerNtNtB6_4core21InstructionVisualizer10get_config
FNDA:4,_RNvXNtNtCs6ttZxmOuonq_17visualsign_solana7presets14compute_budgetNtB2_23ComputeBudgetVisualizerNtNtB6_4core21InstructionVisualizer21visualize_tx_commands
FNDA:8,_RNvXNtNtCs6ttZxmOuonq_17visualsign_solana7presets14compute_budgetNtB2_23ComputeBudgetVisualizerNtNtB6_4core21InstructionVisualizer4kind
FNF:7
FNH:5
DA:24,4
DA:25,4
DA:26,4
DA:27,4
DA:28,4
DA:29,4
DA:30,4
DA:32,4
DA:33,4
DA:34,0
DA:35,0
DA:36,0
DA:37,0
DA:39,4
DA:41,4
DA:42,4
DA:43,4
DA:44,4
DA:45,4
DA:46,4
DA:47,4
DA:48,4
DA:49,4
DA:50,4
DA:51,4
DA:52,4
DA:53,4
DA:54,4
DA:55,4
DA:57,4
DA:58,4
DA:59,4
DA:60,4
DA:61,4
DA:62,4
DA:63,4
DA:65,4
DA:66,4
DA:67,4
DA:68,4
DA:69,4
DA:70,4
DA:71,4
DA:72,4
DA:73,4
DA:74,4
DA:76,4
DA:77,4
DA:79,4
DA:82,4
DA:83,4
DA:84,4
DA:85,4
DA:86,4
DA:87,4
DA:88,4
DA:89,4
DA:90,4
DA:91,4
DA:92,4
DA:93,4
DA:95,15
DA:96,15
DA:97,15
DA:99,8
DA:100,8
DA:101,8
DA:104,4
DA:105,4
DA:106,0
DA:107,0
DA:109,2
DA:110,2
DA:112,2
DA:113,2
DA:115,0
DA:116,0
DA:118,0
DA:120,4
DA:122,4
DA:123,4
DA:124,4
DA:125,4
DA:126,4
DA:127,4
DA:130,4
DA:131,0
DA:132,0
DA:133,0
DA:134,0
DA:135,2
DA:136,2
DA:137,2
DA:138,2
DA:139,2
DA:140,2
DA:141,2
DA:142,2
DA:143,2
DA:144,2
DA:145,2
DA:146,2
DA:147,2
DA:148,2
DA:149,2
DA:150,0
DA:151,0
DA:152,0
DA:153,0
DA:154,0
DA:155,0
DA:156,0
DA:159,4
DA:160,4
DA:162,4
DA:163,4
DA:164,4
BRF:0
BRH:0
LF:120
LH:97
end_of_record
SF:/home/user/projects/visualsign-parser/src/chain_parsers/visualsign-solana/src/presets/jupiter_swap/config.rs
FN:11,_RNvXNtNtNtCs6ttZxmOuonq_17visualsign_solana7presets12jupiter_swap6configNtB2_17JupiterSwapConfigNtNtB8_4core23SolanaIntegrationConfig4data
FN:7,_RNvXNtNtNtCs6ttZxmOuonq_17visualsign_solana7presets12jupiter_swap6configNtB2_17JupiterSwapConfigNtNtB8_4core23SolanaIntegrationConfig3new
FN:13,_RNCNvXNtNtNtCs6ttZxmOuonq_17visualsign_solana7presets12jupiter_swap6configNtB4_17JupiterSwapConfigNtNtBa_4core23SolanaIntegrationConfig4data0Ba_
FNDA:5,_RNvXNtNtNtCs6ttZxmOuonq_17visualsign_solana7presets12jupiter_swap6configNtB2_17JupiterSwapConfigNtNtB8_4core23SolanaIntegrationConfig4data
FNDA:0,_RNvXNtNtNtCs6ttZxmOuonq_17visualsign_solana7presets12jupiter_swap6configNtB2_17JupiterSwapConfigNtNtB8_4core23SolanaIntegrationConfig3new
FNDA:1,_RNCNvXNtNtNtCs6ttZxmOuonq_17visualsign_solana7presets12jupiter_swap6configNtB4_17JupiterSwapConfigNtNtBa_4core23SolanaIntegrationConfig4data0Ba_
FNF:3
FNH:2
DA:7,0
DA:8,0
DA:9,0
DA:11,5
DA:13,5
DA:14,1
DA:15,1
DA:16,1
DA:17,1
DA:19,1
DA:21,1
DA:22,1
DA:23,5
BRF:0
BRH:0
LF:14
LH:11
end_of_record
SF:/home/user/projects/visualsign-parser/src/chain_parsers/visualsign-solana/src/presets/jupiter_swap/mod.rs
FN:48,_RNvMNtNtCs6ttZxmOuonq_17visualsign_solana7presets12jupiter_swapNtB2_22JupiterSwapInstruction23parse_amounts_from_data
FN:269,_RNvNtNtCs6ttZxmOuonq_17visualsign_solana7presets12jupiter_swap19format_token_amount
FN:276,_RNvNtNtCs6ttZxmOuonq_17visualsign_solana7presets12jupiter_swap19format_token_symbol
FN:181,_RNvNtNtCs6ttZxmOuonq_17visualsign_solana7presets12jupiter_swap23parse_route_instruction
FN:159,_RNvNtNtCs6ttZxmOuonq_17visualsign_solana7presets12jupiter_swap30parse_jupiter_swap_instruction
FN:229,_RNvNtNtCs6ttZxmOuonq_17visualsign_solana7presets12jupiter_swap31format_jupiter_swap_instruction
FN:197,_RNvNtNtCs6ttZxmOuonq_17visualsign_solana7presets12jupiter_swap33parse_exact_out_route_instruction
FN:283,_RNvNtNtCs6ttZxmOuonq_17visualsign_solana7presets12jupiter_swap35create_jupiter_swap_expanded_fields
FN:213,_RNvNtNtCs6ttZxmOuonq_17visualsign_solana7presets12jupiter_swap39parse_shared_accounts_route_instruction
FN:150,_RNvXs_NtNtCs6ttZxmOuonq_17visualsign_solana7presets12jupiter_swapNtB4_21JupiterSwapVisualizerNtNtB8_4core21InstructionVisualizer10get_config
FN:85,_RNvXs_NtNtCs6ttZxmOuonq_17visualsign_solana7presets12jupiter_swapNtB4_21JupiterSwapVisualizerNtNtB8_4core21InstructionVisualizer21visualize_tx_commands
FN:154,_RNvXs_NtNtCs6ttZxmOuonq_17visualsign_solana7presets12jupiter_swapNtB4_21JupiterSwapVisualizerNtNtB8_4core21InstructionVisualizer4kind
FN:272,_RNCNvNtNtCs6ttZxmOuonq_17visualsign_solana7presets12jupiter_swap19format_token_amount0B7_
FN:273,_RNCNvNtNtCs6ttZxmOuonq_17visualsign_solana7presets12jupiter_swap19format_token_amounts_0B7_
FN:279,_RNCNvNtNtCs6ttZxmOuonq_17visualsign_solana7presets12jupiter_swap19format_token_symbol0B7_
FN:280,_RNCNvNtNtCs6ttZxmOuonq_17visualsign_solana7presets12jupiter_swap19format_token_symbols_0B7_
FN:187,_RNCNvNtNtCs6ttZxmOuonq_17visualsign_solana7presets12jupiter_swap23parse_route_instruction0B7_
FN:188,_RNCNvNtNtCs6ttZxmOuonq_17visualsign_solana7presets12jupiter_swap23parse_route_instructions_0B7_
FN:203,_RNCNvNtNtCs6ttZxmOuonq_17visualsign_solana7presets12jupiter_swap33parse_exact_out_route_instruction0B7_
FN:204,_RNCNvNtNtCs6ttZxmOuonq_17visualsign_solana7presets12jupiter_swap33parse_exact_out_route_instructions_0B7_
FN:313,_RNCNvNtNtCs6ttZxmOuonq_17visualsign_solana7presets12jupiter_swap35create_jupiter_swap_expanded_fields0B7_
FN:317,_RNCNvNtNtCs6ttZxmOuonq_17visualsign_solana7presets12jupiter_swap35create_jupiter_swap_expanded_fieldss0_0B7_
FN:319,_RNCNvNtNtCs6ttZxmOuonq_17visualsign_solana7presets12jupiter_swap35create_jupiter_swap_expanded_fieldss1_0B7_
FN:327,_RNCNvNtNtCs6ttZxmOuonq_17visualsign_solana7presets12jupiter_swap35create_jupiter_swap_expanded_fieldss2_0B7_
FN:333,_RNCNvNtNtCs6ttZxmOuonq_17visualsign_solana7presets12jupiter_swap35create_jupiter_swap_expanded_fieldss3_0B7_
FN:335,_RNCNvNtNtCs6ttZxmOuonq_17visualsign_solana7presets12jupiter_swap35create_jupiter_swap_expanded_fieldss4_0B7_
FN:337,_RNCNvNtNtCs6ttZxmOuonq_17visualsign_solana7presets12jupiter_swap35create_jupiter_swap_expanded_fieldss5_0B7_
FN:344,_RNCNvNtNtCs6ttZxmOuonq_17visualsign_solana7presets12jupiter_swap35create_jupiter_swap_expanded_fieldss6_0B7_
FN:350,_RNCNvNtNtCs6ttZxmOuonq_17visualsign_solana7presets12jupiter_swap35create_jupiter_swap_expanded_fieldss7_0B7_
FN:358,_RNCNvNtNtCs6ttZxmOuonq_17visualsign_solana7presets12jupiter_swap35create_jupiter_swap_expanded_fieldss8_0B7_
FN:290,_RNCNvNtNtCs6ttZxmOuonq_17visualsign_solana7presets12jupiter_swap35create_jupiter_swap_expanded_fieldss9_0B7_
FN:315,_RNCNvNtNtCs6ttZxmOuonq_17visualsign_solana7presets12jupiter_swap35create_jupiter_swap_expanded_fieldss_0B7_
FN:219,_RNCNvNtNtCs6ttZxmOuonq_17visualsign_solana7presets12jupiter_swap39parse_shared_accounts_route_instruction0B7_
FN:220,_RNCNvNtNtCs6ttZxmOuonq_17visualsign_solana7presets12jupiter_swap39parse_shared_accounts_route_instructions_0B7_
FN:91,_RNCNvXs_NtNtCs6ttZxmOuonq_17visualsign_solana7presets12jupiter_swapNtB6_21JupiterSwapVisualizerNtNtBa_4core21InstructionVisualizer21visualize_tx_commands0Ba_
FN:101,_RNCNvXs_NtNtCs6ttZxmOuonq_17visualsign_solana7presets12jupiter_swapNtB6_21JupiterSwapVisualizerNtNtBa_4core21InstructionVisualizer21visualize_tx_commandss0_0Ba_
FN:108,_RNCNvXs_NtNtCs6ttZxmOuonq_17visualsign_solana7presets12jupiter_swapNtB6_21JupiterSwapVisualizerNtNtBa_4core21InstructionVisualizer21visualize_tx_commandss1_0Ba_
FN:96,_RNCNvXs_NtNtCs6ttZxmOuonq_17visualsign_solana7presets12jupiter_swapNtB6_21JupiterSwapVisualizerNtNtBa_4core21InstructionVisualizer21visualize_tx_commandss_0Ba_
FN:499,_RNCNCNvNtNtNtCs6ttZxmOuonq_17visualsign_solana7presets12jupiter_swap5testss_39test_jupiter_instruction_with_real_data00Bb_
FN:504,_RNCNCNvNtNtNtCs6ttZxmOuonq_17visualsign_solana7presets12jupiter_swap5testss_39test_jupiter_instruction_with_real_data0s0_0Bb_
FN:505,_RNCNCNvNtNtNtCs6ttZxmOuonq_17visualsign_solana7presets12jupiter_swap5testss_39test_jupiter_instruction_with_real_data0s1_0Bb_
FN:500,_RNCNCNvNtNtNtCs6ttZxmOuonq_17visualsign_solana7presets12jupiter_swap5testss_39test_jupiter_instruction_with_real_data0s_0Bb_
FN:537,_RNCNCNvNtNtNtCs6ttZxmOuonq_17visualsign_solana7presets12jupiter_swap5testss_39test_jupiter_instruction_with_real_datas0_00Bb_
FN:513,_RNCNCNvNtNtNtCs6ttZxmOuonq_17visualsign_solana7presets12jupiter_swap5testss_39test_jupiter_instruction_with_real_datas_00Bb_
FN:518,_RNCNCNvNtNtNtCs6ttZxmOuonq_17visualsign_solana7presets12jupiter_swap5testss_39test_jupiter_instruction_with_real_datas_0s0_0Bb_
FN:519,_RNCNCNvNtNtNtCs6ttZxmOuonq_17visualsign_solana7presets12jupiter_swap5testss_39test_jupiter_instruction_with_real_datas_0s1_0Bb_
FN:514,_RNCNCNvNtNtNtCs6ttZxmOuonq_17visualsign_solana7presets12jupiter_swap5testss_39test_jupiter_instruction_with_real_datas_0s_0Bb_
FN:433,_RNCNvNtNtNtCs6ttZxmOuonq_17visualsign_solana7presets12jupiter_swap5testss_37test_jupiter_swap_instruction_parsing0B9_
FN:443,_RNCNvNtNtNtCs6ttZxmOuonq_17visualsign_solana7presets12jupiter_swap5testss_37test_jupiter_swap_instruction_parsings_0B9_
FN:496,_RNCNvNtNtNtCs6ttZxmOuonq_17visualsign_solana7presets12jupiter_swap5testss_39test_jupiter_instruction_with_real_data0B9_
FN:537,_RNCNvNtNtNtCs6ttZxmOuonq_17visualsign_solana7presets12jupiter_swap5testss_39test_jupiter_instruction_with_real_datas0_0B9_
FN:510,_RNCNvNtNtNtCs6ttZxmOuonq_17visualsign_solana7presets12jupiter_swap5testss_39test_jupiter_instruction_with_real_datas_0B9_
FN:583,_RNvNtNtNtCs6ttZxmOuonq_17visualsign_solana7presets12jupiter_swap5testss_35test_jupiter_discriminator_matching
FN:561,_RNvNtNtNtCs6ttZxmOuonq_17visualsign_solana7presets12jupiter_swap5testss_36test_jupiter_discriminator_constants
FN:370,_RNvNtNtNtCs6ttZxmOuonq_17visualsign_solana7presets12jupiter_swap5testss_37test_jupiter_swap_instruction_parsing
FN:454,_RNvNtNtNtCs6ttZxmOuonq_17visualsign_solana7presets12jupiter_swap5testss_39test_jupiter_instruction_with_real_data
FNDA:8,_RNvMNtNtCs6ttZxmOuonq_17visualsign_solana7presets12jupiter_swapNtB2_22JupiterSwapInstruction23parse_amounts_from_data
FNDA:8,_RNvNtNtCs6ttZxmOuonq_17visualsign_solana7presets12jupiter_swap19format_token_amount
FNDA:8,_RNvNtNtCs6ttZxmOuonq_17visualsign_solana7presets12jupiter_swap19format_token_symbol
FNDA:6,_RNvNtNtCs6ttZxmOuonq_17visualsign_solana7presets12jupiter_swap23parse_route_instruction
FNDA:10,_RNvNtNtCs6ttZxmOuonq_17visualsign_solana7presets12jupiter_swap30parse_jupiter_swap_instruction
FNDA:5,_RNvNtNtCs6ttZxmOuonq_17visualsign_solana7presets12jupiter_swap31format_jupiter_swap_instruction
FNDA:1,_RNvNtNtCs6ttZxmOuonq_17visualsign_solana7presets12jupiter_swap33parse_exact_out_route_instruction
FNDA:6,_RNvNtNtCs6ttZxmOuonq_17visualsign_solana7presets12jupiter_swap35create_jupiter_swap_expanded_fields
FNDA:1,_RNvNtNtCs6ttZxmOuonq_17visualsign_solana7presets12jupiter_swap39parse_shared_accounts_route_instruction
FNDA:5,_RNvXs_NtNtCs6ttZxmOuonq_17visualsign_solana7presets12jupiter_swapNtB4_21JupiterSwapVisualizerNtNtB8_4core21InstructionVisualizer10get_config
FNDA:4,_RNvXs_NtNtCs6ttZxmOuonq_17visualsign_solana7presets12jupiter_swapNtB4_21JupiterSwapVisualizerNtNtB8_4core21InstructionVisualizer21visualize_tx_commands
FNDA:8,_RNvXs_NtNtCs6ttZxmOuonq_17visualsign_solana7presets12jupiter_swapNtB4_21JupiterSwapVisualizerNtNtB8_4core21InstructionVisualizer4kind
FNDA:8,_RNCNvNtNtCs6ttZxmOuonq_17visualsign_solana7presets12jupiter_swap19format_token_amount0B7_
FNDA:0,_RNCNvNtNtCs6ttZxmOuonq_17visualsign_solana7presets12jupiter_swap19format_token_amounts_0B7_
FNDA:8,_RNCNvNtNtCs6ttZxmOuonq_17visualsign_solana7presets12jupiter_swap19format_token_symbol0B7_
FNDA:0,_RNCNvNtNtCs6ttZxmOuonq_17visualsign_solana7presets12jupiter_swap19format_token_symbols_0B7_
FNDA:6,_RNCNvNtNtCs6ttZxmOuonq_17visualsign_solana7presets12jupiter_swap23parse_route_instruction0B7_
FNDA:4,_RNCNvNtNtCs6ttZxmOuonq_17visualsign_solana7presets12jupiter_swap23parse_route_instructions_0B7_
FNDA:1,_RNCNvNtNtCs6ttZxmOuonq_17visualsign_solana7presets12jupiter_swap33parse_exact_out_route_instruction0B7_
FNDA:0,_RNCNvNtNtCs6ttZxmOuonq_17visualsign_solana7presets12jupiter_swap33parse_exact_out_route_instructions_0B7_
FNDA:0,_RNCNvNtNtCs6ttZxmOuonq_17visualsign_solana7presets12jupiter_swap35create_jupiter_swap_expanded_fields0B7_
FNDA:0,_RNCNvNtNtCs6ttZxmOuonq_17visualsign_solana7presets12jupiter_swap35create_jupiter_swap_expanded_fieldss0_0B7_
FNDA:0,_RNCNvNtNtCs6ttZxmOuonq_17visualsign_solana7presets12jupiter_swap35create_jupiter_swap_expanded_fieldss1_0B7_
FNDA:0,_RNCNvNtNtCs6ttZxmOuonq_17visualsign_solana7presets12jupiter_swap35create_jupiter_swap_expanded_fieldss2_0B7_
FNDA:0,_RNCNvNtNtCs6ttZxmOuonq_17visualsign_solana7presets12jupiter_swap35create_jupiter_swap_expanded_fieldss3_0B7_
FNDA:0,_RNCNvNtNtCs6ttZxmOuonq_17visualsign_solana7presets12jupiter_swap35create_jupiter_swap_expanded_fieldss4_0B7_
FNDA:0,_RNCNvNtNtCs6ttZxmOuonq_17visualsign_solana7presets12jupiter_swap35create_jupiter_swap_expanded_fieldss5_0B7_
FNDA:0,_RNCNvNtNtCs6ttZxmOuonq_17visualsign_solana7presets12jupiter_swap35create_jupiter_swap_expanded_fieldss6_0B7_
FNDA:0,_RNCNvNtNtCs6ttZxmOuonq_17visualsign_solana7presets12jupiter_swap35create_jupiter_swap_expanded_fieldss7_0B7_
FNDA:0,_RNCNvNtNtCs6ttZxmOuonq_17visualsign_solana7presets12jupiter_swap35create_jupiter_swap_expanded_fieldss8_0B7_
FNDA:0,_RNCNvNtNtCs6ttZxmOuonq_17visualsign_solana7presets12jupiter_swap35create_jupiter_swap_expanded_fieldss9_0B7_
FNDA:0,_RNCNvNtNtCs6ttZxmOuonq_17visualsign_solana7presets12jupiter_swap35create_jupiter_swap_expanded_fieldss_0B7_
FNDA:1,_RNCNvNtNtCs6ttZxmOuonq_17visualsign_solana7presets12jupiter_swap39parse_shared_accounts_route_instruction0B7_
FNDA:0,_RNCNvNtNtCs6ttZxmOuonq_17visualsign_solana7presets12jupiter_swap39parse_shared_accounts_route_instructions_0B7_
FNDA:0,_RNCNvXs_NtNtCs6ttZxmOuonq_17visualsign_solana7presets12jupiter_swapNtB6_21JupiterSwapVisualizerNtNtBa_4core21InstructionVisualizer21visualize_tx_commands0Ba_
FNDA:0,_RNCNvXs_NtNtCs6ttZxmOuonq_17visualsign_solana7presets12jupiter_swapNtB6_21JupiterSwapVisualizerNtNtBa_4core21InstructionVisualizer21visualize_tx_commandss0_0Ba_
FNDA:0,_RNCNvXs_NtNtCs6ttZxmOuonq_17visualsign_solana7presets12jupiter_swapNtB6_21JupiterSwapVisualizerNtNtBa_4core21InstructionVisualizer21visualize_tx_commandss1_0Ba_
FNDA:112,_RNCNvXs_NtNtCs6ttZxmOuonq_17visualsign_solana7presets12jupiter_swapNtB6_21JupiterSwapVisualizerNtNtBa_4core21InstructionVisualizer21visualize_tx_commandss_0Ba_
FNDA:1,_RNCNCNvNtNtNtCs6ttZxmOuonq_17visualsign_solana7presets12jupiter_swap5testss_39test_jupiter_instruction_with_real_data00Bb_
FNDA:1,_RNCNCNvNtNtNtCs6ttZxmOuonq_17visualsign_solana7presets12jupiter_swap5testss_39test_jupiter_instruction_with_real_data0s0_0Bb_
FNDA:1,_RNCNCNvNtNtNtCs6ttZxmOuonq_17visualsign_solana7presets12jupiter_swap5testss_39test_jupiter_instruction_with_real_data0s1_0Bb_
FNDA:1,_RNCNCNvNtNtNtCs6ttZxmOuonq_17visualsign_solana7presets12jupiter_swap5testss_39test_jupiter_instruction_with_real_data0s_0Bb_
FNDA:1,_RNCNCNvNtNtNtCs6ttZxmOuonq_17visualsign_solana7presets12jupiter_swap5testss_39test_jupiter_instruction_with_real_datas0_00Bb_
FNDA:6,_RNCNCNvNtNtNtCs6ttZxmOuonq_17visualsign_solana7presets12jupiter_swap5testss_39test_jupiter_instruction_with_real_datas_00Bb_
FNDA:1,_RNCNCNvNtNtNtCs6ttZxmOuonq_17visualsign_solana7presets12jupiter_swap5testss_39test_jupiter_instruction_with_real_datas_0s0_0Bb_
FNDA:1,_RNCNCNvNtNtNtCs6ttZxmOuonq_17visualsign_solana7presets12jupiter_swap5testss_39test_jupiter_instruction_with_real_datas_0s1_0Bb_
FNDA:6,_RNCNCNvNtNtNtCs6ttZxmOuonq_17visualsign_solana7presets12jupiter_swap5testss_39test_jupiter_instruction_with_real_datas_0s_0Bb_
FNDA:1,_RNCNvNtNtNtCs6ttZxmOuonq_17visualsign_solana7presets12jupiter_swap5testss_37test_jupiter_swap_instruction_parsing0B9_
FNDA:10,_RNCNvNtNtNtCs6ttZxmOuonq_17visualsign_solana7presets12jupiter_swap5testss_37test_jupiter_swap_instruction_parsings_0B9_
FNDA:1,_RNCNvNtNtNtCs6ttZxmOuonq_17visualsign_solana7presets12jupiter_swap5testss_39test_jupiter_instruction_with_real_data0B9_
FNDA:1,_RNCNvNtNtNtCs6ttZxmOuonq_17visualsign_solana7presets12jupiter_swap5testss_39test_jupiter_instruction_with_real_datas0_0B9_
FNDA:6,_RNCNvNtNtNtCs6ttZxmOuonq_17visualsign_solana7presets12jupiter_swap5testss_39test_jupiter_instruction_with_real_datas_0B9_
FNDA:1,_RNvNtNtNtCs6ttZxmOuonq_17visualsign_solana7presets12jupiter_swap5testss_35test_jupiter_discriminator_matching
FNDA:1,_RNvNtNtNtCs6ttZxmOuonq_17visualsign_solana7presets12jupiter_swap5testss_36test_jupiter_discriminator_constants
FNDA:1,_RNvNtNtNtCs6ttZxmOuonq_17visualsign_solana7presets12jupiter_swap5testss_37test_jupiter_swap_instruction_parsing
FNDA:1,_RNvNtNtNtCs6ttZxmOuonq_17visualsign_solana7presets12jupiter_swap5testss_39test_jupiter_instruction_with_real_data
FNF:56
FNH:37
DA:48,8
DA:49,8
DA:50,0
DA:51,8
DA:53,8
DA:54,8
DA:55,8
DA:56,8
DA:57,8
DA:58,8
DA:59,8
DA:60,8
DA:61,8
DA:62,8
DA:63,8
DA:64,8
DA:65,8
DA:66,8
DA:67,8
DA:68,8
DA:69,8
DA:70,8
DA:71,8
DA:72,8
DA:73,8
DA:75,8
DA:76,8
DA:85,4
DA:86,4
DA:87,4
DA:88,4
DA:89,4
DA:90,4
DA:91,4
DA:93,4
DA:94,4
DA:95,4
DA:96,112
DA:97,4
DA:99,4
DA:100,4
DA:101,4
DA:103,4
DA:105,4
DA:106,4
DA:107,4
DA:108,4
DA:112,4
DA:113,4
DA:114,4
DA:115,4
DA:116,4
DA:117,0
DA:120,4
DA:121,4
DA:122,4
DA:123,4
DA:124,4
DA:125,4
DA:126,4
DA:127,4
DA:128,4
DA:129,4
DA:131,4
DA:132,4
DA:134,4
DA:137,4
DA:138,4
DA:139,4
DA:140,4
DA:141,4
DA:142,4
DA:143,4
DA:144,4
DA:145,4
DA:146,4
DA:147,4
DA:148,4
DA:150,5
DA:151,5
DA:152,5
DA:154,8
DA:155,8
DA:156,8
DA:159,10
DA:160,10
DA:161,10
DA:162,10
DA:163,10
DA:164,0
DA:165,10
DA:167,10
DA:169,10
DA:170,10
DA:171,4
DA:172,1
DA:174,3
DA:175,1
DA:177,2
DA:179,10
DA:181,6
DA:182,6
DA:183,6
DA:184,6
DA:185,6
DA:187,6
DA:188,6
DA:190,6
DA:191,6
DA:192,6
DA:193,6
DA:194,6
DA:195,6
DA:197,1
DA:198,1
DA:199,1
DA:200,1
DA:201,1
DA:203,1
DA:204,1
DA:206,1
DA:207,1
DA:208,1
DA:209,1
DA:210,1
DA:211,1
DA:213,1
DA:214,1
DA:215,1
DA:216,1
DA:217,1
DA:219,1
DA:220,1
DA:222,1
DA:223,1
DA:224,1
DA:225,1
DA:226,1
DA:227,1
DA:229,5
DA:230,5
DA:232,4
DA:233,4
DA:234,4
DA:237,0
DA:238,0
DA:239,0
DA:242,0
DA:243,0
DA:244,0
DA:246,4
DA:247,4
DA:248,0
DA:250,0
DA:252,0
DA:255,4
DA:256,4
DA:258,4
DA:259,4
DA:260,4
DA:261,4
DA:265,1
DA:267,5
DA:269,8
DA:270,8
DA:271,8
DA:272,8
DA:273,8
DA:274,8
DA:276,8
DA:277,8
DA:278,8
DA:279,8
DA:280,8
DA:281,8
DA:283,6
DA:284,6
DA:285,6
DA:286,6
DA:287,6
DA:288,6
DA:289,6
DA:290,6
DA:293,6
DA:295,5
DA:296,5
DA:297,5
DA:300,0
DA:301,0
DA:302,0
DA:305,0
DA:306,0
DA:307,0
DA:310,5
DA:311,5
DA:312,5
DA:313,5
DA:314,5
DA:315,5
DA:316,5
DA:317,5
DA:318,5
DA:319,5
DA:321,0
DA:324,5
DA:325,4
DA:326,4
DA:327,4
DA:328,4
DA:329,4
DA:330,4
DA:331,4
DA:333,4
DA:334,4
DA:335,4
DA:336,4
DA:337,4
DA:339,1
DA:342,5
DA:343,5
DA:344,5
DA:348,1
DA:349,1
DA:350,1
DA:356,6
DA:357,6
DA:358,6
DA:361,6
DA:362,6
DA:370,1
DA:372,1
DA:375,1
DA:376,1
DA:377,1
DA:381,1
DA:382,1
DA:383,1
DA:384,1
DA:385,1
DA:386,1
DA:387,1
DA:390,1
DA:391,1
DA:392,1
DA:396,1
DA:397,1
DA:400,1
DA:401,1
DA:402,1
DA:404,0
DA:408,1
DA:409,1
DA:410,1
DA:411,0
DA:413,1
DA:414,1
DA:415,0
DA:419,1
DA:420,1
DA:421,1
DA:422,1
DA:424,1
DA:427,1
DA:428,1
DA:429,0
DA:433,1
DA:434,1
DA:435,1
DA:437,0
DA:439,1
DA:440,1
DA:443,10
DA:444,10
DA:445,1
DA:447,9
DA:449,10
DA:450,1
DA:451,1
DA:454,1
DA:458,1
DA:459,1
DA:460,1
DA:461,1
DA:462,1
DA:463,1
DA:464,1
DA:466,1
DA:469,1
DA:472,1
DA:473,1
DA:474,1
DA:477,1
DA:478,1
DA:479,1
DA:480,1
DA:482,1
DA:485,1
DA:488,1
DA:489,1
DA:490,0
DA:492,1
DA:493,1
DA:496,1
DA:497,1
DA:498,1
DA:499,1
DA:500,1
DA:501,1
DA:502,1
DA:503,1
DA:504,1
DA:505,1
DA:506,1
DA:507,1
DA:510,6
DA:511,6
DA:512,6
DA:513,6
DA:514,6
DA:515,6
DA:516,1
DA:517,1
DA:518,1
DA:519,1
DA:520,1
DA:521,6
DA:523,1
DA:524,1
DA:525,0
DA:527,1
DA:530,1
DA:531,1
DA:532,1
DA:535,1
DA:536,1
DA:537,1
DA:538,1
DA:541,1
DA:542,1
DA:543,1
DA:545,1
DA:546,1
DA:547,1
DA:550,1
DA:551,1
DA:552,1
DA:553,1
DA:556,0
DA:558,1
DA:561,1
DA:563,1
DA:564,1
DA:565,1
DA:568,1
DA:572,1
DA:576,1
DA:580,1
DA:583,1
DA:586,1
DA:587,1
DA:588,1
DA:589,1
DA:590,1
DA:591,1
DA:592,1
DA:593,1
DA:594,1
DA:595,1
DA:596,1
DA:597,1
DA:598,1
DA:599,1
DA:600,1
DA:601,1
DA:602,1
DA:603,1
DA:604,1
DA:605,1
DA:606,1
DA:607,1
DA:608,1
DA:609,1
DA:611,1
DA:614,1
DA:615,1
DA:616,0
DA:620,1
DA:622,1
DA:624,0
DA:628,1
DA:630,1
DA:632,0
DA:636,1
DA:638,1
DA:640,0
DA:642,1
BRF:0
BRH:0
LF:436
LH:386
end_of_record
SF:/home/user/projects/visualsign-parser/src/chain_parsers/visualsign-solana/src/presets/spl_token/config.rs
FN:12,_RNCNvXNtNtNtCs6ttZxmOuonq_17visualsign_solana7presets9spl_token6configNtB4_14SplTokenConfigNtNtBa_4core23SolanaIntegrationConfig4data0Ba_
FN:6,_RNvXNtNtNtCs6ttZxmOuonq_17visualsign_solana7presets9spl_token6configNtB2_14SplTokenConfigNtNtB8_4core23SolanaIntegrationConfig3new
FN:10,_RNvXNtNtNtCs6ttZxmOuonq_17visualsign_solana7presets9spl_token6configNtB2_14SplTokenConfigNtNtB8_4core23SolanaIntegrationConfig4data
FNDA:1,_RNCNvXNtNtNtCs6ttZxmOuonq_17visualsign_solana7presets9spl_token6configNtB4_14SplTokenConfigNtNtBa_4core23SolanaIntegrationConfig4data0Ba_
FNDA:0,_RNvXNtNtNtCs6ttZxmOuonq_17visualsign_solana7presets9spl_token6configNtB2_14SplTokenConfigNtNtB8_4core23SolanaIntegrationConfig3new
FNDA:28,_RNvXNtNtNtCs6ttZxmOuonq_17visualsign_solana7presets9spl_token6configNtB2_14SplTokenConfigNtNtB8_4core23SolanaIntegrationConfig4data
FNF:3
FNH:2
DA:6,0
DA:7,0
DA:8,0
DA:10,28
DA:12,28
DA:13,1
DA:14,1
DA:15,1
DA:16,1
DA:18,1
DA:20,1
DA:21,1
DA:22,28
BRF:0
BRH:0
LF:14
LH:11
end_of_record
SF:/home/user/projects/visualsign-parser/src/chain_parsers/visualsign-solana/src/presets/spl_token/mod.rs
FN:164,_RNvNtNtCs6ttZxmOuonq_17visualsign_solana7presets9spl_token24format_token_instruction
FN:122,_RNvNtNtCs6ttZxmOuonq_17visualsign_solana7presets9spl_token27create_preview_layout_field
FN:48,_RNvNtNtCs6ttZxmOuonq_17visualsign_solana7presets9spl_token27create_token_preview_layout
FN:39,_RNvXNtNtCs6ttZxmOuonq_17visualsign_solana7presets9spl_tokenNtB2_18SplTokenVisualizerNtNtB6_4core21InstructionVisualizer10get_config
FN:24,_RNvXNtNtCs6ttZxmOuonq_17visualsign_solana7presets9spl_tokenNtB2_18SplTokenVisualizerNtNtB6_4core21InstructionVisualizer21visualize_tx_commands
FN:43,_RNvXNtNtCs6ttZxmOuonq_17visualsign_solana7presets9spl_tokenNtB2_18SplTokenVisualizerNtNtB6_4core21InstructionVisualizer4kind
FN:30,_RNCNvXNtNtCs6ttZxmOuonq_17visualsign_solana7presets9spl_tokenNtB4_18SplTokenVisualizerNtNtB8_4core21InstructionVisualizer21visualize_tx_commands0B8_
FN:32,_RNCNvXNtNtCs6ttZxmOuonq_17visualsign_solana7presets9spl_tokenNtB4_18SplTokenVisualizerNtNtB8_4core21InstructionVisualizer21visualize_tx_commandss_0B8_
FNDA:27,_RNvNtNtCs6ttZxmOuonq_17visualsign_solana7presets9spl_token24format_token_instruction
FNDA:14,_RNvNtNtCs6ttZxmOuonq_17visualsign_solana7presets9spl_token27create_preview_layout_field
FNDA:14,_RNvNtNtCs6ttZxmOuonq_17visualsign_solana7presets9spl_token27create_token_preview_layout
FNDA:28,_RNvXNtNtCs6ttZxmOuonq_17visualsign_solana7presets9spl_tokenNtB2_18SplTokenVisualizerNtNtB6_4core21InstructionVisualizer10get_config
FNDA:14,_RNvXNtNtCs6ttZxmOuonq_17visualsign_solana7presets9spl_tokenNtB2_18SplTokenVisualizerNtNtB6_4core21InstructionVisualizer21visualize_tx_commands
FNDA:18,_RNvXNtNtCs6ttZxmOuonq_17visualsign_solana7presets9spl_tokenNtB2_18SplTokenVisualizerNtNtB6_4core21InstructionVisualizer4kind
FNDA:0,_RNCNvXNtNtCs6ttZxmOuonq_17visualsign_solana7presets9spl_tokenNtB4_18SplTokenVisualizerNtNtB8_4core21InstructionVisualizer21visualize_tx_commands0B8_
FNDA:0,_RNCNvXNtNtCs6ttZxmOuonq_17visualsign_solana7presets9spl_tokenNtB4_18SplTokenVisualizerNtNtB8_4core21InstructionVisualizer21visualize_tx_commandss_0B8_
FNF:8
FNH:6
DA:24,14
DA:25,14
DA:26,14
DA:27,14
DA:28,14
DA:29,14
DA:30,14
DA:32,14
DA:33,0
DA:34,0
DA:36,14
DA:37,14
DA:39,28
DA:40,28
DA:41,28
DA:43,18
DA:44,18
DA:45,18
DA:48,14
DA:49,14
DA:50,14
DA:51,14
DA:52,14
DA:53,14
DA:54,1
DA:55,1
DA:57,1
DA:59,1
DA:60,1
DA:61,1
DA:62,1
DA:63,1
DA:66,1
DA:67,1
DA:68,1
DA:69,1
DA:70,1
DA:71,1
DA:74,0
DA:75,0
DA:77,0
DA:79,0
DA:80,0
DA:81,0
DA:82,0
DA:83,0
DA:84,0
DA:87,0
DA:88,0
DA:89,0
DA:90,0
DA:91,0
DA:92,0
DA:97,13
DA:99,13
DA:100,13
DA:101,13
DA:104,13
DA:105,13
DA:106,13
DA:107,13
DA:108,13
DA:111,13
DA:112,13
DA:113,13
DA:114,13
DA:115,13
DA:116,13
DA:120,14
DA:122,14
DA:123,14
DA:124,14
DA:125,14
DA:126,14
DA:127,14
DA:128,14
DA:129,14
DA:130,14
DA:131,14
DA:132,14
DA:133,14
DA:134,14
DA:136,14
DA:137,14
DA:138,14
DA:139,14
DA:140,14
DA:141,14
DA:142,14
DA:143,14
DA:144,14
DA:145,14
DA:147,14
DA:148,14
DA:149,14
DA:150,14
DA:151,14
DA:152,14
DA:153,14
DA:154,14
DA:155,14
DA:156,14
DA:157,14
DA:158,14
DA:159,14
DA:160,14
DA:161,14
DA:162,14
DA:164,27
DA:165,27
DA:166,1
DA:167,1
DA:168,0
DA:169,0
DA:170,0
DA:171,0
DA:172,0
DA:173,3
DA:174,2
DA:175,1
DA:176,1
DA:177,1
DA:178,1
DA:179,0
DA:180,0
DA:181,1
DA:182,1
DA:183,5
DA:184,3
DA:185,3
DA:186,3
DA:187,0
DA:188,0
DA:189,0
DA:190,0
DA:192,27
BRF:0
BRH:0
LF:139
LH:108
end_of_record
SF:/home/user/projects/visualsign-parser/src/chain_parsers/visualsign-solana/src/presets/spl_token/tests.rs
FN:102,_RNCNvNtNtNtCs6ttZxmOuonq_17visualsign_solana7presets9spl_token5testss_24test_amount_instructions0B9_
FN:111,_RNCNvNtNtNtCs6ttZxmOuonq_17visualsign_solana7presets9spl_token5testss_24test_amount_instructionss0_0B9_
FN:114,_RNCNvNtNtNtCs6ttZxmOuonq_17visualsign_solana7presets9spl_token5testss_24test_amount_instructionss1_0B9_
FN:120,_RNCNvNtNtNtCs6ttZxmOuonq_17visualsign_solana7presets9spl_token5testss_24test_amount_instructionss2_0B9_
FN:123,_RNCNvNtNtNtCs6ttZxmOuonq_17visualsign_solana7presets9spl_token5testss_24test_amount_instructionss3_0B9_
FN:105,_RNCNvNtNtNtCs6ttZxmOuonq_17visualsign_solana7presets9spl_token5testss_24test_amount_instructionss_0B9_
FN:178,_RNCNvNtNtNtCs6ttZxmOuonq_17visualsign_solana7presets9spl_token5testss_24test_simple_instructions0B9_
FN:186,_RNCNvNtNtNtCs6ttZxmOuonq_17visualsign_solana7presets9spl_token5testss_24test_simple_instructionss0_0B9_
FN:189,_RNCNvNtNtNtCs6ttZxmOuonq_17visualsign_solana7presets9spl_token5testss_24test_simple_instructionss1_0B9_
FN:194,_RNCNvNtNtNtCs6ttZxmOuonq_17visualsign_solana7presets9spl_token5testss_24test_simple_instructionss2_0B9_
FN:197,_RNCNvNtNtNtCs6ttZxmOuonq_17visualsign_solana7presets9spl_token5testss_24test_simple_instructionss3_0B9_
FN:202,_RNCNvNtNtNtCs6ttZxmOuonq_17visualsign_solana7presets9spl_token5testss_24test_simple_instructionss4_0B9_
FN:205,_RNCNvNtNtNtCs6ttZxmOuonq_17visualsign_solana7presets9spl_token5testss_24test_simple_instructionss5_0B9_
FN:181,_RNCNvNtNtNtCs6ttZxmOuonq_17visualsign_solana7presets9spl_token5testss_24test_simple_instructionss_0B9_
FN:140,_RNCNvNtNtNtCs6ttZxmOuonq_17visualsign_solana7presets9spl_token5testss_25test_checked_instructions0B9_
FN:150,_RNCNvNtNtNtCs6ttZxmOuonq_17visualsign_solana7presets9spl_token5testss_25test_checked_instructionss0_0B9_
FN:153,_RNCNvNtNtNtCs6ttZxmOuonq_17visualsign_solana7presets9spl_token5testss_25test_checked_instructionss1_0B9_
FN:160,_RNCNvNtNtNtCs6ttZxmOuonq_17visualsign_solana7presets9spl_token5testss_25test_checked_instructionss2_0B9_
FN:163,_RNCNvNtNtNtCs6ttZxmOuonq_17visualsign_solana7presets9spl_token5testss_25test_checked_instructionss3_0B9_
FN:143,_RNCNvNtNtNtCs6ttZxmOuonq_17visualsign_solana7presets9spl_token5testss_25test_checked_instructionss_0B9_
FN:402,_RNCNvNtNtNtCs6ttZxmOuonq_17visualsign_solana7presets9spl_token5testss_38test_mint_to_visualization_with_amount0B9_
FN:338,_RNCNvNtNtNtCs6ttZxmOuonq_17visualsign_solana7presets9spl_token5testss_42test_transfer_visualization_with_addresses0B9_
FN:347,_RNCNvNtNtNtCs6ttZxmOuonq_17visualsign_solana7presets9spl_token5testss_42test_transfer_visualization_with_addressess_0B9_
FN:558,_RNCNvNtNtNtCs6ttZxmOuonq_17visualsign_solana7presets9spl_token5testss_49test_transfer_checked_visualization_with_decimals0B9_
FN:567,_RNCNvNtNtNtCs6ttZxmOuonq_17visualsign_solana7presets9spl_token5testss_49test_transfer_checked_visualization_with_decimalss_0B9_
FN:35,_RNvNtNtNtCs6ttZxmOuonq_17visualsign_solana7presets9spl_token5tests15run_amount_test
FN:83,_RNvNtNtNtCs6ttZxmOuonq_17visualsign_solana7presets9spl_token5tests15run_simple_test
FN:58,_RNvNtNtNtCs6ttZxmOuonq_17visualsign_solana7presets9spl_token5tests16run_checked_test
FN:215,_RNvNtNtNtCs6ttZxmOuonq_17visualsign_solana7presets9spl_token5testss_20test_initialize_mint
FN:247,_RNvNtNtNtCs6ttZxmOuonq_17visualsign_solana7presets9spl_token5testss_21test_initialize_mint2
FN:96,_RNvNtNtNtCs6ttZxmOuonq_17visualsign_solana7presets9spl_token5testss_24test_amount_instructions
FN:173,_RNvNtNtNtCs6ttZxmOuonq_17visualsign_solana7presets9spl_token5testss_24test_simple_instructions
FN:133,_RNvNtNtNtCs6ttZxmOuonq_17visualsign_solana7presets9spl_token5testss_25test_checked_instructions
FN:263,_RNvNtNtNtCs6ttZxmOuonq_17visualsign_solana7presets9spl_token5testss_29test_freeze_and_thaw_coverage
FN:463,_RNvNtNtNtCs6ttZxmOuonq_17visualsign_solana7presets9spl_token5testss_31test_thaw_account_visualization
FN:415,_RNvNtNtNtCs6ttZxmOuonq_17visualsign_solana7presets9spl_token5testss_33test_freeze_account_visualization
FN:360,_RNvNtNtNtCs6ttZxmOuonq_17visualsign_solana7presets9spl_token5testss_38test_mint_to_visualization_with_amount
FN:294,_RNvNtNtNtCs6ttZxmOuonq_17visualsign_solana7presets9spl_token5testss_42test_transfer_visualization_with_addresses
FN:511,_RNvNtNtNtCs6ttZxmOuonq_17visualsign_solana7presets9spl_token5testss_49test_transfer_checked_visualization_with_decimals
FNDA:1,_RNCNvNtNtNtCs6ttZxmOuonq_17visualsign_solana7presets9spl_token5testss_24test_amount_instructions0B9_
FNDA:1,_RNCNvNtNtNtCs6ttZxmOuonq_17visualsign_solana7presets9spl_token5testss_24test_amount_instructionss0_0B9_
FNDA:1,_RNCNvNtNtNtCs6ttZxmOuonq_17visualsign_solana7presets9spl_token5testss_24test_amount_instructionss1_0B9_
FNDA:1,_RNCNvNtNtNtCs6ttZxmOuonq_17visualsign_solana7presets9spl_token5testss_24test_amount_instructionss2_0B9_
FNDA:1,_RNCNvNtNtNtCs6ttZxmOuonq_17visualsign_solana7presets9spl_token5testss_24test_amount_instructionss3_0B9_
FNDA:1,_RNCNvNtNtNtCs6ttZxmOuonq_17visualsign_solana7presets9spl_token5testss_24test_amount_instructionss_0B9_
FNDA:1,_RNCNvNtNtNtCs6ttZxmOuonq_17visualsign_solana7presets9spl_token5testss_24test_simple_instructions0B9_
FNDA:1,_RNCNvNtNtNtCs6ttZxmOuonq_17visualsign_solana7presets9spl_token5testss_24test_simple_instructionss0_0B9_
FNDA:1,_RNCNvNtNtNtCs6ttZxmOuonq_17visualsign_solana7presets9spl_token5testss_24test_simple_instructionss1_0B9_
FNDA:1,_RNCNvNtNtNtCs6ttZxmOuonq_17visualsign_solana7presets9spl_token5testss_24test_simple_instructionss2_0B9_
FNDA:1,_RNCNvNtNtNtCs6ttZxmOuonq_17visualsign_solana7presets9spl_token5testss_24test_simple_instructionss3_0B9_
FNDA:1,_RNCNvNtNtNtCs6ttZxmOuonq_17visualsign_solana7presets9spl_token5testss_24test_simple_instructionss4_0B9_
FNDA:1,_RNCNvNtNtNtCs6ttZxmOuonq_17visualsign_solana7presets9spl_token5testss_24test_simple_instructionss5_0B9_
FNDA:1,_RNCNvNtNtNtCs6ttZxmOuonq_17visualsign_solana7presets9spl_token5testss_24test_simple_instructionss_0B9_
FNDA:1,_RNCNvNtNtNtCs6ttZxmOuonq_17visualsign_solana7presets9spl_token5testss_25test_checked_instructions0B9_
FNDA:1,_RNCNvNtNtNtCs6ttZxmOuonq_17visualsign_solana7presets9spl_token5testss_25test_checked_instructionss0_0B9_
FNDA:1,_RNCNvNtNtNtCs6ttZxmOuonq_17visualsign_solana7presets9spl_token5testss_25test_checked_instructionss1_0B9_
FNDA:1,_RNCNvNtNtNtCs6ttZxmOuonq_17visualsign_solana7presets9spl_token5testss_25test_checked_instructionss2_0B9_
FNDA:1,_RNCNvNtNtNtCs6ttZxmOuonq_17visualsign_solana7presets9spl_token5testss_25test_checked_instructionss3_0B9_
FNDA:1,_RNCNvNtNtNtCs6ttZxmOuonq_17visualsign_solana7presets9spl_token5testss_25test_checked_instructionss_0B9_
FNDA:3,_RNCNvNtNtNtCs6ttZxmOuonq_17visualsign_solana7presets9spl_token5testss_38test_mint_to_visualization_with_amount0B9_
FNDA:3,_RNCNvNtNtNtCs6ttZxmOuonq_17visualsign_solana7presets9spl_token5testss_42test_transfer_visualization_with_addresses0B9_
FNDA:4,_RNCNvNtNtNtCs6ttZxmOuonq_17visualsign_solana7presets9spl_token5testss_42test_transfer_visualization_with_addressess_0B9_
FNDA:1,_RNCNvNtNtNtCs6ttZxmOuonq_17visualsign_solana7presets9spl_token5testss_49test_transfer_checked_visualization_with_decimals0B9_
FNDA:2,_RNCNvNtNtNtCs6ttZxmOuonq_17visualsign_solana7presets9spl_token5testss_49test_transfer_checked_visualization_with_decimalss_0B9_
FNDA:3,_RNvNtNtNtCs6ttZxmOuonq_17visualsign_solana7presets9spl_token5tests15run_amount_test
FNDA:4,_RNvNtNtNtCs6ttZxmOuonq_17visualsign_solana7presets9spl_token5tests15run_simple_test
FNDA:3,_RNvNtNtNtCs6ttZxmOuonq_17visualsign_solana7presets9spl_token5tests16run_checked_test
FNDA:1,_RNvNtNtNtCs6ttZxmOuonq_17visualsign_solana7presets9spl_token5testss_20test_initialize_mint
FNDA:1,_RNvNtNtNtCs6ttZxmOuonq_17visualsign_solana7presets9spl_token5testss_21test_initialize_mint2
FNDA:1,_RNvNtNtNtCs6ttZxmOuonq_17visualsign_solana7presets9spl_token5testss_24test_amount_instructions
FNDA:1,_RNvNtNtNtCs6ttZxmOuonq_17visualsign_solana7presets9spl_token5testss_24test_simple_instructions
FNDA:1,_RNvNtNtNtCs6ttZxmOuonq_17visualsign_solana7presets9spl_token5testss_25test_checked_instructions
FNDA:1,_RNvNtNtNtCs6ttZxmOuonq_17visualsign_solana7presets9spl_token5testss_29test_freeze_and_thaw_coverage
FNDA:1,_RNvNtNtNtCs6ttZxmOuonq_17visualsign_solana7presets9spl_token5testss_31test_thaw_account_visualization
FNDA:1,_RNvNtNtNtCs6ttZxmOuonq_17visualsign_solana7presets9spl_token5testss_33test_freeze_account_visualization
FNDA:1,_RNvNtNtNtCs6ttZxmOuonq_17visualsign_solana7presets9spl_token5testss_38test_mint_to_visualization_with_amount
FNDA:1,_RNvNtNtNtCs6ttZxmOuonq_17visualsign_solana7presets9spl_token5testss_42test_transfer_visualization_with_addresses
FNDA:1,_RNvNtNtNtCs6ttZxmOuonq_17visualsign_solana7presets9spl_token5testss_49test_transfer_checked_visualization_with_decimals
FNF:39
FNH:39
DA:35,3
DA:36,3
DA:37,3
DA:38,3
DA:39,3
DA:41,3
DA:42,3
DA:44,3
DA:45,3
DA:48,3
DA:49,1
DA:50,1
DA:51,1
DA:52,0
DA:53,0
DA:55,3
DA:56,3
DA:58,3
DA:59,3
DA:60,3
DA:61,3
DA:62,3
DA:63,3
DA:65,3
DA:66,3
DA:68,3
DA:69,3
DA:72,3
DA:73,1
DA:74,1
DA:75,1
DA:76,0
DA:77,0
DA:79,3
DA:80,3
DA:81,3
DA:83,4
DA:84,4
DA:85,4
DA:86,4
DA:88,4
DA:89,4
DA:91,4
DA:92,4
DA:93,4
DA:96,1
DA:97,1
DA:102,1
DA:103,1
DA:104,1
DA:105,1
DA:111,1
DA:112,1
DA:113,1
DA:114,1
DA:120,1
DA:121,1
DA:122,1
DA:123,1
DA:127,4
DA:128,3
DA:129,3
DA:130,1
DA:133,1
DA:134,1
DA:140,1
DA:141,1
DA:142,1
DA:143,1
DA:150,1
DA:151,1
DA:152,1
DA:153,1
DA:160,1
DA:161,1
DA:162,1
DA:163,1
DA:167,4
DA:168,3
DA:169,3
DA:170,1
DA:173,1
DA:174,1
DA:178,1
DA:179,1
DA:180,1
DA:181,1
DA:186,1
DA:187,1
DA:188,1
DA:189,1
DA:194,1
DA:195,1
DA:196,1
DA:197,1
DA:202,1
DA:203,1
DA:204,1
DA:205,1
DA:209,5
DA:210,4
DA:211,4
DA:212,1
DA:215,1
DA:216,1
DA:217,1
DA:218,1
DA:219,1
DA:221,1
DA:222,1
DA:223,1
DA:224,1
DA:225,1
DA:226,1
DA:228,1
DA:230,1
DA:231,1
DA:232,1
DA:235,1
DA:236,1
DA:237,1
DA:238,1
DA:240,1
DA:241,1
DA:242,1
DA:243,0
DA:244,1
DA:247,1
DA:248,1
DA:249,1
DA:250,1
DA:251,1
DA:252,1
DA:255,1
DA:257,1
DA:258,1
DA:259,1
DA:260,1
DA:263,1
DA:265,1
DA:266,1
DA:267,1
DA:268,1
DA:269,1
DA:270,1
DA:272,1
DA:274,1
DA:275,1
DA:276,1
DA:279,1
DA:280,1
DA:281,1
DA:282,1
DA:283,1
DA:284,1
DA:286,1
DA:288,1
DA:289,1
DA:290,1
DA:291,1
DA:294,1
DA:296,1
DA:297,1
DA:298,1
DA:299,1
DA:301,1
DA:302,1
DA:303,1
DA:306,1
DA:307,1
DA:308,1
DA:309,1
DA:310,1
DA:311,1
DA:312,1
DA:315,1
DA:316,1
DA:319,1
DA:321,1
DA:322,1
DA:325,1
DA:328,1
DA:329,1
DA:334,1
DA:335,1
DA:338,3
DA:339,1
DA:340,3
DA:341,3
DA:343,3
DA:344,1
DA:347,4
DA:348,1
DA:349,4
DA:350,4
DA:352,4
DA:353,1
DA:355,0
DA:357,1
DA:360,1
DA:362,1
DA:363,1
DA:364,1
DA:365,1
DA:367,1
DA:368,1
DA:369,1
DA:370,1
DA:371,1
DA:372,1
DA:373,1
DA:375,1
DA:378,1
DA:379,1
DA:380,1
DA:381,1
DA:382,1
DA:383,1
DA:384,1
DA:387,1
DA:388,1
DA:391,1
DA:393,1
DA:396,1
DA:397,1
DA:398,1
DA:401,1
DA:402,3
DA:403,1
DA:404,3
DA:405,3
DA:407,3
DA:408,1
DA:410,0
DA:412,1
DA:415,1
DA:417,1
DA:418,1
DA:419,1
DA:421,1
DA:422,1
DA:423,1
DA:424,1
DA:425,1
DA:426,1
DA:428,1
DA:431,1
DA:432,1
DA:433,1
DA:434,1
DA:435,1
DA:436,1
DA:437,1
DA:440,1
DA:441,1
DA:444,1
DA:446,1
DA:449,1
DA:450,1
DA:455,1
DA:456,1
DA:458,0
DA:460,1
DA:463,1
DA:465,1
DA:466,1
DA:467,1
DA:469,1
DA:470,1
DA:471,1
DA:472,1
DA:473,1
DA:474,1
DA:476,1
DA:479,1
DA:480,1
DA:481,1
DA:482,1
DA:483,1
DA:484,1
DA:485,1
DA:488,1
DA:489,1
DA:492,1
DA:494,1
DA:497,1
DA:498,1
DA:503,1
DA:504,1
DA:506,0
DA:508,1
DA:511,1
DA:513,1
DA:514,1
DA:515,1
DA:516,1
DA:517,1
DA:518,1
DA:520,1
DA:521,1
DA:522,1
DA:523,1
DA:524,1
DA:525,1
DA:526,1
DA:527,1
DA:528,1
DA:530,1
DA:533,1
DA:534,1
DA:535,1
DA:536,1
DA:537,1
DA:538,1
DA:539,1
DA:542,1
DA:543,1
DA:546,1
DA:548,1
DA:551,1
DA:552,1
DA:555,1
DA:558,1
DA:559,1
DA:560,1
DA:561,1
DA:563,1
DA:564,1
DA:567,2
DA:568,1
DA:569,2
DA:570,2
DA:572,2
DA:573,1
DA:575,0
DA:577,1
BRF:0
BRH:0
LF:341
LH:331
end_of_record
SF:/home/user/projects/visualsign-parser/src/chain_parsers/visualsign-solana/src/presets/stakepool/config.rs
FN:13,_RNvXNtNtNtCs6ttZxmOuonq_17visualsign_solana7presets9stakepool6configNtB2_15StakepoolConfigNtNtB8_4core23SolanaIntegrationConfig4data
FN:9,_RNvXNtNtNtCs6ttZxmOuonq_17visualsign_solana7presets9stakepool6configNtB2_15StakepoolConfigNtNtB8_4core23SolanaIntegrationConfig3new
FN:15,_RNCNvXNtNtNtCs6ttZxmOuonq_17visualsign_solana7presets9stakepool6configNtB4_15StakepoolConfigNtNtBa_4core23SolanaIntegrationConfig4data0Ba_
FNDA:1,_RNvXNtNtNtCs6ttZxmOuonq_17visualsign_solana7presets9stakepool6configNtB2_15StakepoolConfigNtNtB8_4core23SolanaIntegrationConfig4data
FNDA:0,_RNvXNtNtNtCs6ttZxmOuonq_17visualsign_solana7presets9stakepool6configNtB2_15StakepoolConfigNtNtB8_4core23SolanaIntegrationConfig3new
FNDA:1,_RNCNvXNtNtNtCs6ttZxmOuonq_17visualsign_solana7presets9stakepool6configNtB4_15StakepoolConfigNtNtBa_4core23SolanaIntegrationConfig4data0Ba_
FNF:3
FNH:2
DA:9,0
DA:10,0
DA:11,0
DA:13,1
DA:15,1
DA:16,1
DA:17,1
DA:18,1
DA:20,1
DA:22,1
DA:24,1
DA:25,1
DA:26,1
BRF:0
BRH:0
LF:14
LH:11
end_of_record
SF:/home/user/projects/visualsign-parser/src/chain_parsers/visualsign-solana/src/presets/stakepool/mod.rs
FN:93,_RNvNtNtCs6ttZxmOuonq_17visualsign_solana7presets9stakepool28parse_stake_pool_instruction
FN:101,_RNvNtNtCs6ttZxmOuonq_17visualsign_solana7presets9stakepool29format_stake_pool_instruction
FN:44,_RNvNtNtCs6ttZxmOuonq_17visualsign_solana7presets9stakepool31create_stakepool_preview_layout
FN:108,_RNvNtNtCs6ttZxmOuonq_17visualsign_solana7presets9stakepool31get_stake_pool_instruction_name
FN:35,_RNvXNtNtCs6ttZxmOuonq_17visualsign_solana7presets9stakepoolNtB2_19StakepoolVisualizerNtNtB6_4core21InstructionVisualizer10get_config
FN:20,_RNvXNtNtCs6ttZxmOuonq_17visualsign_solana7presets9stakepoolNtB2_19StakepoolVisualizerNtNtB6_4core21InstructionVisualizer21visualize_tx_commands
FN:39,_RNvXNtNtCs6ttZxmOuonq_17visualsign_solana7presets9stakepoolNtB2_19StakepoolVisualizerNtNtB6_4core21InstructionVisualizer4kind
FN:96,_RNCNvNtNtCs6ttZxmOuonq_17visualsign_solana7presets9stakepool28parse_stake_pool_instruction0B7_
FN:26,_RNCNvXNtNtCs6ttZxmOuonq_17visualsign_solana7presets9stakepoolNtB4_19StakepoolVisualizerNtNtB8_4core21InstructionVisualizer21visualize_tx_commands0B8_
FNDA:0,_RNvNtNtCs6ttZxmOuonq_17visualsign_solana7presets9stakepool28parse_stake_pool_instruction
FNDA:0,_RNvNtNtCs6ttZxmOuonq_17visualsign_solana7presets9stakepool29format_stake_pool_instruction
FNDA:0,_RNvNtNtCs6ttZxmOuonq_17visualsign_solana7presets9stakepool31create_stakepool_preview_layout
FNDA:0,_RNvNtNtCs6ttZxmOuonq_17visualsign_solana7presets9stakepool31get_stake_pool_instruction_name
FNDA:1,_RNvXNtNtCs6ttZxmOuonq_17visualsign_solana7presets9stakepoolNtB2_19StakepoolVisualizerNtNtB6_4core21InstructionVisualizer10get_config
FNDA:0,_RNvXNtNtCs6ttZxmOuonq_17visualsign_solana7presets9stakepoolNtB2_19StakepoolVisualizerNtNtB6_4core21InstructionVisualizer21visualize_tx_commands
FNDA:0,_RNvXNtNtCs6ttZxmOuonq_17visualsign_solana7presets9stakepoolNtB2_19StakepoolVisualizerNtNtB6_4core21InstructionVisualizer4kind
FNDA:0,_RNCNvNtNtCs6ttZxmOuonq_17visualsign_solana7presets9stakepool28parse_stake_pool_instruction0B7_
FNDA:0,_RNCNvXNtNtCs6ttZxmOuonq_17visualsign_solana7presets9stakepoolNtB4_19StakepoolVisualizerNtNtB8_4core21InstructionVisualizer21visualize_tx_commands0B8_
FNF:9
FNH:1
DA:20,0
DA:21,0
DA:22,0
DA:23,0
DA:24,0
DA:25,0
DA:26,0
DA:29,0
DA:32,0
DA:33,0
DA:35,1
DA:36,1
DA:37,1
DA:39,0
DA:40,0
DA:41,0
DA:44,0
DA:45,0
DA:46,0
DA:47,0
DA:48,0
DA:49,0
DA:51,0
DA:53,0
DA:54,0
DA:55,0
DA:56,0
DA:58,0
DA:59,0
DA:60,0
DA:61,0
DA:62,0
DA:63,0
DA:65,0
DA:66,0
DA:67,0
DA:68,0
DA:69,0
DA:70,0
DA:71,0
DA:72,0
DA:73,0
DA:74,0
DA:76,0
DA:77,0
DA:78,0
DA:79,0
DA:80,0
DA:81,0
DA:82,0
DA:83,0
DA:84,0
DA:85,0
DA:86,0
DA:87,0
DA:88,0
DA:89,0
DA:90,0
DA:91,0
DA:93,0
DA:96,0
DA:97,0
DA:98,0
DA:99,0
DA:101,0
DA:102,0
DA:103,0
DA:104,0
DA:106,0
DA:108,0
DA:109,0
DA:110,0
DA:111,0
DA:112,0
DA:113,0
DA:114,0
DA:115,0
DA:116,0
DA:117,0
DA:118,0
DA:119,0
DA:120,0
DA:121,0
DA:122,0
DA:123,0
DA:124,0
DA:125,0
DA:126,0
DA:128,0
DA:131,0
DA:134,0
DA:136,0
DA:137,0
DA:138,0
DA:139,0
DA:140,0
DA:141,0
DA:143,0
DA:145,0
BRF:0
BRH:0
LF:101
LH:3
end_of_record
SF:/home/user/projects/visualsign-parser/src/chain_parsers/visualsign-solana/src/presets/system/account_labels.rs
FN:5,_RNvNtNtNtCs6ttZxmOuonq_17visualsign_solana7presets6system14account_labels24system_instruction_label
FNDA:0,_RNvNtNtNtCs6ttZxmOuonq_17visualsign_solana7presets6system14account_labels24system_instruction_label
FNF:1
FNH:0
DA:5,0
DA:6,0
DA:7,0
DA:8,0
DA:10,0
DA:11,0
DA:12,0
DA:13,0
DA:15,0
DA:16,0
DA:17,0
DA:19,0
DA:20,0
DA:21,0
DA:22,0
DA:23,0
DA:25,0
DA:26,0
DA:28,0
DA:29,0
DA:31,0
DA:33,0
BRF:0
BRH:0
LF:22
LH:0
end_of_record
SF:/home/user/projects/visualsign-parser/src/chain_parsers/visualsign-solana/src/presets/system/config.rs
FN:13,_RNvXNtNtNtCs6ttZxmOuonq_17visualsign_solana7presets6system6configNtB2_12SystemConfigNtNtB8_4core23SolanaIntegrationConfig4data
FN:15,_RNCNvXNtNtNtCs6ttZxmOuonq_17visualsign_solana7presets6system6configNtB4_12SystemConfigNtNtBa_4core23SolanaIntegrationConfig4data0Ba_
FN:9,_RNvXNtNtNtCs6ttZxmOuonq_17visualsign_solana7presets6system6configNtB2_12SystemConfigNtNtB8_4core23SolanaIntegrationConfig3new
FNDA:11,_RNvXNtNtNtCs6ttZxmOuonq_17visualsign_solana7presets6system6configNtB2_12SystemConfigNtNtB8_4core23SolanaIntegrationConfig4data
FNDA:1,_RNCNvXNtNtNtCs6ttZxmOuonq_17visualsign_solana7presets6system6configNtB4_12SystemConfigNtNtBa_4core23SolanaIntegrationConfig4data0Ba_
FNDA:0,_RNvXNtNtNtCs6ttZxmOuonq_17visualsign_solana7presets6system6configNtB2_12SystemConfigNtNtB8_4core23SolanaIntegrationConfig3new
FNF:3
FNH:2
DA:9,0
DA:10,0
DA:11,0
DA:13,11
DA:15,11
DA:16,1
DA:17,1
DA:18,1
DA:19,1
DA:20,1
DA:21,1
DA:22,11
BRF:0
BRH:0
LF:13
LH:10
end_of_record
SF:/home/user/projects/visualsign-parser/src/chain_parsers/visualsign-solana/src/presets/system/mod.rs
FN:61,_RNCNvNtNtCs6ttZxmOuonq_17visualsign_solana7presets6system28create_system_preview_layout0B7_
FN:66,_RNCNvNtNtCs6ttZxmOuonq_17visualsign_solana7presets6system28create_system_preview_layouts0_0B7_
FN:67,_RNCNvNtNtCs6ttZxmOuonq_17visualsign_solana7presets6system28create_system_preview_layouts1_0B7_
FN:135,_RNCNvNtNtCs6ttZxmOuonq_17visualsign_solana7presets6system28create_system_preview_layouts2_0B7_
FN:136,_RNCNvNtNtCs6ttZxmOuonq_17visualsign_solana7presets6system28create_system_preview_layouts3_0B7_
FN:140,_RNCNvNtNtCs6ttZxmOuonq_17visualsign_solana7presets6system28create_system_preview_layouts4_0B7_
FN:141,_RNCNvNtNtCs6ttZxmOuonq_17visualsign_solana7presets6system28create_system_preview_layouts5_0B7_
FN:62,_RNCNvNtNtCs6ttZxmOuonq_17visualsign_solana7presets6system28create_system_preview_layouts_0B7_
FN:28,_RNCNvXNtNtCs6ttZxmOuonq_17visualsign_solana7presets6systemNtB4_16SystemVisualizerNtNtB8_4core21InstructionVisualizer21visualize_tx_commands0B8_
FN:32,_RNCNvXNtNtCs6ttZxmOuonq_17visualsign_solana7presets6systemNtB4_16SystemVisualizerNtNtB8_4core21InstructionVisualizer21visualize_tx_commandss_0B8_
FN:49,_RNvNtNtCs6ttZxmOuonq_17visualsign_solana7presets6system28create_system_preview_layout
FN:40,_RNvXNtNtCs6ttZxmOuonq_17visualsign_solana7presets6systemNtB2_16SystemVisualizerNtNtB6_4core21InstructionVisualizer10get_config
FN:22,_RNvXNtNtCs6ttZxmOuonq_17visualsign_solana7presets6systemNtB2_16SystemVisualizerNtNtB6_4core21InstructionVisualizer21visualize_tx_commands
FN:44,_RNvXNtNtCs6ttZxmOuonq_17visualsign_solana7presets6systemNtB2_16SystemVisualizerNtNtB6_4core21InstructionVisualizer4kind
FNDA:6,_RNCNvNtNtCs6ttZxmOuonq_17visualsign_solana7presets6system28create_system_preview_layout0B7_
FNDA:6,_RNCNvNtNtCs6ttZxmOuonq_17visualsign_solana7presets6system28create_system_preview_layouts0_0B7_
FNDA:0,_RNCNvNtNtCs6ttZxmOuonq_17visualsign_solana7presets6system28create_system_preview_layouts1_0B7_
FNDA:0,_RNCNvNtNtCs6ttZxmOuonq_17visualsign_solana7presets6system28create_system_preview_layouts2_0B7_
FNDA:0,_RNCNvNtNtCs6ttZxmOuonq_17visualsign_solana7presets6system28create_system_preview_layouts3_0B7_
FNDA:0,_RNCNvNtNtCs6ttZxmOuonq_17visualsign_solana7presets6system28create_system_preview_layouts4_0B7_
FNDA:0,_RNCNvNtNtCs6ttZxmOuonq_17visualsign_solana7presets6system28create_system_preview_layouts5_0B7_
FNDA:0,_RNCNvNtNtCs6ttZxmOuonq_17visualsign_solana7presets6system28create_system_preview_layouts_0B7_
FNDA:0,_RNCNvXNtNtCs6ttZxmOuonq_17visualsign_solana7presets6systemNtB4_16SystemVisualizerNtNtB8_4core21InstructionVisualizer21visualize_tx_commands0B8_
FNDA:0,_RNCNvXNtNtCs6ttZxmOuonq_17visualsign_solana7presets6systemNtB4_16SystemVisualizerNtNtB8_4core21InstructionVisualizer21visualize_tx_commandss_0B8_
FNDA:6,_RNvNtNtCs6ttZxmOuonq_17visualsign_solana7presets6system28create_system_preview_layout
FNDA:11,_RNvXNtNtCs6ttZxmOuonq_17visualsign_solana7presets6systemNtB2_16SystemVisualizerNtNtB6_4core21InstructionVisualizer10get_config
FNDA:6,_RNvXNtNtCs6ttZxmOuonq_17visualsign_solana7presets6systemNtB2_16SystemVisualizerNtNtB6_4core21InstructionVisualizer21visualize_tx_commands
FNDA:12,_RNvXNtNtCs6ttZxmOuonq_17visualsign_solana7presets6systemNtB2_16SystemVisualizerNtNtB6_4core21InstructionVisualizer4kind
FNF:14
FNH:6
DA:22,6
DA:23,6
DA:24,6
DA:25,6
DA:26,6
DA:27,6
DA:28,6
DA:31,6
DA:32,6
DA:33,0
DA:34,0
DA:37,6
DA:38,6
DA:40,11
DA:41,11
DA:42,11
DA:44,12
DA:45,12
DA:46,12
DA:49,6
DA:50,6
DA:51,6
DA:52,6
DA:53,6
DA:56,6
DA:57,6
DA:58,6
DA:59,6
DA:60,6
DA:61,6
DA:62,6
DA:63,6
DA:64,6
DA:65,6
DA:66,6
DA:67,6
DA:69,6
DA:70,6
DA:71,6
DA:72,0
DA:74,6
DA:75,6
DA:76,6
DA:77,6
DA:78,6
DA:79,6
DA:80,6
DA:81,6
DA:82,6
DA:83,6
DA:84,6
DA:85,6
DA:86,6
DA:87,6
DA:88,6
DA:89,6
DA:90,6
DA:93,6
DA:94,6
DA:95,6
DA:96,6
DA:97,6
DA:98,6
DA:100,6
DA:101,6
DA:102,6
DA:103,6
DA:104,6
DA:105,6
DA:106,6
DA:107,6
DA:108,6
DA:109,6
DA:111,6
DA:112,6
DA:113,6
DA:114,6
DA:115,6
DA:116,6
DA:117,6
DA:118,6
DA:119,6
DA:120,6
DA:121,6
DA:122,6
DA:123,6
DA:124,6
DA:125,6
DA:128,0
DA:129,0
DA:130,0
DA:132,0
DA:133,0
DA:134,0
DA:135,0
DA:136,0
DA:137,0
DA:138,0
DA:139,0
DA:140,0
DA:141,0
DA:143,0
DA:144,0
DA:145,0
DA:146,0
DA:147,0
DA:148,0
DA:149,0
DA:152,0
DA:153,0
DA:154,0
DA:155,0
DA:156,0
DA:157,0
DA:158,0
DA:159,0
DA:160,0
DA:161,0
DA:162,0
DA:163,0
DA:166,0
DA:167,0
DA:168,0
DA:169,0
DA:170,0
DA:171,0
DA:173,0
DA:174,0
DA:175,0
DA:176,0
DA:177,0
DA:178,0
DA:179,0
DA:180,0
DA:181,0
DA:182,0
DA:184,0
DA:185,0
DA:186,0
DA:187,0
DA:188,0
DA:189,0
DA:190,0
DA:191,0
DA:192,0
DA:193,0
DA:194,0
DA:195,0
DA:196,0
DA:197,0
DA:198,0
DA:202,0
DA:204,0
DA:205,0
DA:206,0
DA:209,0
DA:210,0
DA:211,0
DA:212,0
DA:215,0
DA:216,0
DA:217,0
DA:218,0
DA:219,0
DA:220,0
DA:222,0
DA:223,0
DA:224,0
DA:225,0
DA:226,0
DA:227,0
DA:228,0
DA:229,0
DA:230,0
DA:231,0
DA:233,0
DA:234,0
DA:235,0
DA:236,0
DA:237,0
DA:238,0
DA:239,0
DA:240,0
DA:241,0
DA:242,0
DA:243,0
DA:244,0
DA:245,0
DA:246,0
DA:247,0
DA:250,6
BRF:0
BRH:0
LF:202
LH:88
end_of_record
SF:/home/user/projects/visualsign-parser/src/chain_parsers/visualsign-solana/src/presets/unknown_program/config.rs
FN:10,_RNvXNtNtNtCs6ttZxmOuonq_17visualsign_solana7presets15unknown_program6configNtB2_20UnknownProgramConfigNtNtB8_4core23SolanaIntegrationConfig3new
FN:25,_RNvXNtNtNtCs6ttZxmOuonq_17visualsign_solana7presets15unknown_program6configNtB2_20UnknownProgramConfigNtNtB8_4core23SolanaIntegrationConfig10can_handle
FN:14,_RNvXNtNtNtCs6ttZxmOuonq_17visualsign_solana7presets15unknown_program6configNtB2_20UnknownProgramConfigNtNtB8_4core23SolanaIntegrationConfig4data
FN:16,_RNCNvXNtNtNtCs6ttZxmOuonq_17visualsign_solana7presets15unknown_program6configNtB4_20UnknownProgramConfigNtNtBa_4core23SolanaIntegrationConfig4data0Ba_
FNDA:0,_RNvXNtNtNtCs6ttZxmOuonq_17visualsign_solana7presets15unknown_program6configNtB2_20UnknownProgramConfigNtNtB8_4core23SolanaIntegrationConfig3new
FNDA:1,_RNvXNtNtNtCs6ttZxmOuonq_17visualsign_solana7presets15unknown_program6configNtB2_20UnknownProgramConfigNtNtB8_4core23SolanaIntegrationConfig10can_handle
FNDA:0,_RNvXNtNtNtCs6ttZxmOuonq_17visualsign_solana7presets15unknown_program6configNtB2_20UnknownProgramConfigNtNtB8_4core23SolanaIntegrationConfig4data
FNDA:0,_RNCNvXNtNtNtCs6ttZxmOuonq_17visualsign_solana7presets15unknown_program6configNtB4_20UnknownProgramConfigNtNtBa_4core23SolanaIntegrationConfig4data0Ba_
FNF:4
FNH:1
DA:10,0
DA:11,0
DA:12,0
DA:14,0
DA:16,0
DA:19,0
DA:20,0
DA:21,0
DA:22,0
DA:25,1
DA:26,1
DA:27,1
DA:28,1
DA:29,1
DA:30,1
DA:31,1
BRF:0
BRH:0
LF:17
LH:7
end_of_record
SF:/home/user/projects/visualsign-parser/src/chain_parsers/visualsign-solana/src/presets/unknown_program/mod.rs
FN:41,_RNvNtNtCs6ttZxmOuonq_17visualsign_solana7presets15unknown_program37create_unknown_program_preview_layout
FN:32,_RNvXNtNtCs6ttZxmOuonq_17visualsign_solana7presets15unknown_programNtB2_24UnknownProgramVisualizerNtNtB6_4core21InstructionVisualizer10get_config
FN:21,_RNvXNtNtCs6ttZxmOuonq_17visualsign_solana7presets15unknown_programNtB2_24UnknownProgramVisualizerNtNtB6_4core21InstructionVisualizer21visualize_tx_commands
FN:36,_RNvXNtNtCs6ttZxmOuonq_17visualsign_solana7presets15unknown_programNtB2_24UnknownProgramVisualizerNtNtB6_4core21InstructionVisualizer4kind
FN:27,_RNCNvXNtNtCs6ttZxmOuonq_17visualsign_solana7presets15unknown_programNtB4_24UnknownProgramVisualizerNtNtB8_4core21InstructionVisualizer21visualize_tx_commands0B8_
FNDA:1,_RNvNtNtCs6ttZxmOuonq_17visualsign_solana7presets15unknown_program37create_unknown_program_preview_layout
FNDA:1,_RNvXNtNtCs6ttZxmOuonq_17visualsign_solana7presets15unknown_programNtB2_24UnknownProgramVisualizerNtNtB6_4core21InstructionVisualizer10get_config
FNDA:1,_RNvXNtNtCs6ttZxmOuonq_17visualsign_solana7presets15unknown_programNtB2_24UnknownProgramVisualizerNtNtB6_4core21InstructionVisualizer21visualize_tx_commands
FNDA:2,_RNvXNtNtCs6ttZxmOuonq_17visualsign_solana7presets15unknown_programNtB2_24UnknownProgramVisualizerNtNtB6_4core21InstructionVisualizer4kind
FNDA:0,_RNCNvXNtNtCs6ttZxmOuonq_17visualsign_solana7presets15unknown_programNtB4_24UnknownProgramVisualizerNtNtB8_4core21InstructionVisualizer21visualize_tx_commands0B8_
FNF:5
FNH:4
DA:21,1
DA:22,1
DA:23,1
DA:24,1
DA:25,1
DA:26,1
DA:27,1
DA:29,1
DA:30,1
DA:32,1
DA:33,1
DA:34,1
DA:36,2
DA:37,2
DA:38,2
DA:41,1
DA:42,1
DA:43,1
DA:44,1
DA:47,1
DA:48,1
DA:51,1
DA:54,1
DA:55,1
DA:56,1
DA:59,1
DA:60,1
DA:61,1
DA:62,1
DA:63,1
DA:64,1
DA:66,1
DA:67,1
DA:68,1
DA:69,1
DA:70,1
DA:71,1
DA:72,1
DA:73,1
DA:74,1
DA:75,1
DA:77,1
DA:78,1
DA:79,1
DA:80,1
DA:81,1
DA:82,1
DA:83,1
DA:84,1
DA:85,1
DA:86,1
DA:87,1
DA:88,1
BRF:0
BRH:0
LF:54
LH:53
end_of_record
SF:/home/user/projects/visualsign-parser/src/chain_parsers/visualsign-solana/src/utils/mod.rs
FN:154,_RNCNvNtNtCs6ttZxmOuonq_17visualsign_solana5utils10test_utils16assert_has_field0B7_
FN:155,_RNCNvNtNtCs6ttZxmOuonq_17visualsign_solana5utils10test_utils16assert_has_fields_0B7_
FN:150,_RNvNtNtCs6ttZxmOuonq_17visualsign_solana5utils10test_utils16assert_has_field
FN:102,_RNvNtCs6ttZxmOuonq_17visualsign_solana5utils14get_token_info
FN:72,_RNvNtCs6ttZxmOuonq_17visualsign_solana5utils19format_token_amount
FN:35,_RNvNtCs6ttZxmOuonq_17visualsign_solana5utils22get_token_lookup_table
FN:8,_RNvNtCs6ttZxmOuonq_17visualsign_solana5utils40create_transaction_with_empty_signatures
FN:139,_RNvNtNtCs6ttZxmOuonq_17visualsign_solana5utils10test_utils16payload_from_b64
FNDA:0,_RNCNvNtNtCs6ttZxmOuonq_17visualsign_solana5utils10test_utils16assert_has_field0B7_
FNDA:0,_RNCNvNtNtCs6ttZxmOuonq_17visualsign_solana5utils10test_utils16assert_has_fields_0B7_
FNDA:0,_RNvNtNtCs6ttZxmOuonq_17visualsign_solana5utils10test_utils16assert_has_field
FNDA:12,_RNvNtCs6ttZxmOuonq_17visualsign_solana5utils14get_token_info
FNDA:1,_RNvNtCs6ttZxmOuonq_17visualsign_solana5utils19format_token_amount
FNDA:12,_RNvNtCs6ttZxmOuonq_17visualsign_solana5utils22get_token_lookup_table
FNDA:4,_RNvNtCs6ttZxmOuonq_17visualsign_solana5utils40create_transaction_with_empty_signatures
FNDA:1,_RNvNtNtCs6ttZxmOuonq_17visualsign_solana5utils10test_utils16payload_from_b64
FNF:8
FNH:5
DA:8,4
DA:10,4
DA:11,4
DA:12,4
DA:15,4
DA:18,4
DA:21,4
DA:24,4
DA:25,4
DA:35,12
DA:36,12
DA:39,12
DA:41,12
DA:42,12
DA:43,12
DA:44,12
DA:45,12
DA:49,12
DA:50,12
DA:51,12
DA:52,12
DA:53,12
DA:54,12
DA:55,12
DA:59,12
DA:60,12
DA:61,12
DA:62,12
DA:63,12
DA:64,12
DA:65,12
DA:68,12
DA:69,12
DA:72,1
DA:73,1
DA:74,1
DA:75,1
DA:77,1
DA:78,0
DA:80,1
DA:81,1
DA:82,1
DA:83,0
DA:85,1
DA:88,1
DA:102,12
DA:103,12
DA:105,12
DA:106,1
DA:107,1
DA:108,1
DA:109,1
DA:110,1
DA:111,1
DA:112,1
DA:113,1
DA:116,11
DA:117,8
DA:119,3
DA:122,11
DA:123,11
DA:124,11
DA:125,11
DA:126,11
DA:127,11
DA:128,11
DA:129,11
DA:131,12
DA:139,1
DA:140,1
DA:141,1
DA:142,1
DA:143,1
DA:144,1
DA:145,1
DA:147,1
DA:148,1
DA:150,0
DA:151,0
DA:152,0
DA:153,0
DA:154,0
DA:155,0
DA:156,0
BRF:0
BRH:0
LF:86
LH:75
end_of_record
SF:/home/user/projects/visualsign-parser/src/visualsign/src/encodings.rs
FN:23,_RNvMNtCs7bqwNgl0eIg_10visualsign9encodingsNtB2_18SupportedEncodings6as_str
FN:14,_RNvMNtCs7bqwNgl0eIg_10visualsign9encodingsNtB2_18SupportedEncodings6detect
FN:40,_RNvXs0_NtCs7bqwNgl0eIg_10visualsign9encodingsNtB5_18SupportedEncodingsNtNtNtCs1p5UDGgVI4d_4core3str6traits7FromStr8from_str
FN:32,_RNvXs_NtCs7bqwNgl0eIg_10visualsign9encodingsNtB4_18SupportedEncodingsNtNtCs1p5UDGgVI4d_4core3fmt7Display3fmt
FN:15,_RNCNvMNtCs7bqwNgl0eIg_10visualsign9encodingsNtB4_18SupportedEncodings6detect0B6_
FNDA:0,_RNvMNtCs7bqwNgl0eIg_10visualsign9encodingsNtB2_18SupportedEncodings6as_str
FNDA:16,_RNvMNtCs7bqwNgl0eIg_10visualsign9encodingsNtB2_18SupportedEncodings6detect
FNDA:0,_RNvXs0_NtCs7bqwNgl0eIg_10visualsign9encodingsNtB5_18SupportedEncodingsNtNtNtCs1p5UDGgVI4d_4core3str6traits7FromStr8from_str
FNDA:0,_RNvXs_NtCs7bqwNgl0eIg_10visualsign9encodingsNtB4_18SupportedEncodingsNtNtCs1p5UDGgVI4d_4core3fmt7Display3fmt
FNDA:37,_RNCNvMNtCs7bqwNgl0eIg_10visualsign9encodingsNtB4_18SupportedEncodings6detect0B6_
FNF:5
FNH:2
DA:14,16
DA:15,37
DA:16,0
DA:18,16
DA:20,16
DA:23,0
DA:24,0
DA:25,0
DA:26,0
DA:28,0
DA:32,0
DA:33,0
DA:34,0
DA:40,0
DA:41,0
DA:42,0
DA:43,0
DA:44,0
DA:45,0
DA:46,0
DA:48,0
BRF:0
BRH:0
LF:22
LH:5
end_of_record
SF:/home/user/projects/visualsign-parser/src/visualsign/src/field_builders.rs
FN:140,_RNCNvNtCs7bqwNgl0eIg_10visualsign14field_builders20create_address_field0B5_
FN:142,_RNCNvNtCs7bqwNgl0eIg_10visualsign14field_builders20create_address_fields_0B5_
FN:161,_RNCNvNtCs7bqwNgl0eIg_10visualsign14field_builders21create_raw_data_field0B5_
FN:23,_RNCNvNtCs7bqwNgl0eIg_10visualsign14field_builders23SIGNED_PROPER_NUMBER_RE0B5_
FN:150,_RNCNvNtCs7bqwNgl0eIg_10visualsign14field_builders26default_hex_representation0B5_
FN:28,_RNvNtCs7bqwNgl0eIg_10visualsign14field_builders17create_text_field
FN:90,_RNvNtCs7bqwNgl0eIg_10visualsign14field_builders19create_amount_field
FN:62,_RNvNtCs7bqwNgl0eIg_10visualsign14field_builders19create_number_field
FN:120,_RNvNtCs7bqwNgl0eIg_10visualsign14field_builders20create_address_field
FN:156,_RNvNtCs7bqwNgl0eIg_10visualsign14field_builders21create_raw_data_field
FN:47,_RNvNtCs7bqwNgl0eIg_10visualsign14field_builders22validate_number_string
FN:148,_RNvNtCs7bqwNgl0eIg_10visualsign14field_builders26default_hex_representation
FNDA:0,_RNCNvNtCs7bqwNgl0eIg_10visualsign14field_builders20create_address_field0B5_
FNDA:0,_RNCNvNtCs7bqwNgl0eIg_10visualsign14field_builders20create_address_fields_0B5_
FNDA:0,_RNCNvNtCs7bqwNgl0eIg_10visualsign14field_builders21create_raw_data_field0B5_
FNDA:1,_RNCNvNtCs7bqwNgl0eIg_10visualsign14field_builders23SIGNED_PROPER_NUMBER_RE0B5_
FNDA:0,_RNCNvNtCs7bqwNgl0eIg_10visualsign14field_builders26default_hex_representation0B5_
FNDA:154,_RNvNtCs7bqwNgl0eIg_10visualsign14field_builders17create_text_field
FNDA:9,_RNvNtCs7bqwNgl0eIg_10visualsign14field_builders19create_amount_field
FNDA:9,_RNvNtCs7bqwNgl0eIg_10visualsign14field_builders19create_number_field
FNDA:0,_RNvNtCs7bqwNgl0eIg_10visualsign14field_builders20create_address_field
FNDA:10,_RNvNtCs7bqwNgl0eIg_10visualsign14field_builders21create_raw_data_field
FNDA:18,_RNvNtCs7bqwNgl0eIg_10visualsign14field_builders22validate_number_string
FNDA:0,_RNvNtCs7bqwNgl0eIg_10visualsign14field_builders26default_hex_representation
FNF:12
FNH:6
DA:23,1
DA:24,1
DA:25,1
DA:26,1
DA:28,154
DA:29,154
DA:30,154
DA:31,154
DA:32,154
DA:33,154
DA:34,154
DA:35,154
DA:36,154
DA:37,154
DA:38,154
DA:39,154
DA:40,154
DA:41,154
DA:42,154
DA:43,154
DA:44,154
DA:45,154
DA:47,18
DA:48,18
DA:49,0
DA:50,18
DA:53,18
DA:54,18
DA:56,0
DA:57,0
DA:58,0
DA:60,18
DA:62,9
DA:63,9
DA:64,9
DA:65,9
DA:66,9
DA:67,9
DA:69,9
DA:70,0
DA:72,9
DA:75,9
DA:76,9
DA:77,9
DA:78,9
DA:79,9
DA:80,9
DA:81,9
DA:82,9
DA:83,9
DA:84,9
DA:85,9
DA:86,9
DA:87,9
DA:88,9
DA:90,9
DA:91,9
DA:92,9
DA:93,9
DA:94,9
DA:95,9
DA:97,9
DA:98,0
DA:99,0
DA:100,0
DA:101,9
DA:102,9
DA:103,9
DA:104,9
DA:105,9
DA:106,9
DA:107,9
DA:108,9
DA:109,9
DA:110,9
DA:111,9
DA:112,9
DA:113,9
DA:114,9
DA:115,9
DA:116,9
DA:117,9
DA:120,0
DA:121,0
DA:122,0
DA:123,0
DA:124,0
DA:125,0
DA:126,0
DA:127,0
DA:130,0
DA:131,0
DA:133,0
DA:134,0
DA:135,0
DA:136,0
DA:138,0
DA:139,0
DA:140,0
DA:141,0
DA:142,0
DA:146,0
DA:148,0
DA:149,0
DA:150,0
DA:151,0
DA:152,0
DA:153,0
DA:156,10
DA:157,10
DA:158,10
DA:159,10
DA:160,10
DA:161,10
DA:163,10
DA:164,10
DA:165,10
DA:166,10
DA:167,10
DA:168,10
DA:169,10
DA:170,10
DA:171,10
DA:172,10
DA:173,10
DA:174,10
DA:175,10
DA:176,10
BRF:0
BRH:0
LF:132
LH:94
end_of_record
SF:/home/user/projects/visualsign-parser/src/visualsign/src/lib.rs
FN:84,_RNvCs7bqwNgl0eIg_10visualsign15is_empty_string
FN:812,_RNvCs7bqwNgl0eIg_10visualsign24sort_json_alphabetically
FN:46,_RNvCs7bqwNgl0eIg_10visualsign25verify_json_deterministic
FN:403,_RNvMs2_Cs7bqwNgl0eIg_10visualsignNtB5_20SignablePayloadField10field_type
FN:371,_RNvMs2_Cs7bqwNgl0eIg_10visualsignNtB5_20SignablePayloadField13fallback_text
FN:387,_RNvMs2_Cs7bqwNgl0eIg_10visualsignNtB5_20SignablePayloadField5label
FN:804,_RNvMsn_Cs7bqwNgl0eIg_10visualsignNtB5_15SignablePayload14to_pretty_json
FN:765,_RNvMsn_Cs7bqwNgl0eIg_10visualsignNtB5_15SignablePayload35verify_field_deterministic_ordering
FN:728,_RNvMsn_Cs7bqwNgl0eIg_10visualsignNtB5_15SignablePayload3new
FN:786,_RNvMsn_Cs7bqwNgl0eIg_10visualsignNtB5_15SignablePayload7to_json
FN:839,_RNvMso_Cs7bqwNgl0eIg_10visualsignNtB5_15SignablePayload16validate_charset
FN:874,_RNvMso_Cs7bqwNgl0eIg_10visualsignNtB5_15SignablePayload17to_validated_json
FN:235,_RNvXs_Cs7bqwNgl0eIg_10visualsignNtB4_20SignablePayloadFieldNtB4_15FieldSerializer16serialize_to_map
FN:297,_RNvXs_Cs7bqwNgl0eIg_10visualsignNtB4_20SignablePayloadFieldNtB4_15FieldSerializer19get_expected_fields
FN:321,_RINvXs0_Cs7bqwNgl0eIg_10visualsignNtB6_20SignablePayloadFieldNtNtCs2n7C5Lt3XWo_5serde3ser9Serialize9serializeNtNtNtCsaG8a4LftQFj_10serde_json5value3ser10SerializerEB6_
FN:438,_RINvXs4_Cs7bqwNgl0eIg_10visualsignNtB6_33SignablePayloadFieldPreviewLayoutNtNtCs2n7C5Lt3XWo_5serde3ser9Serialize9serializeNtNtNtCsaG8a4LftQFj_10serde_json5value3ser10SerializerEB6_
FN:565,_RINvXsc_Cs7bqwNgl0eIg_10visualsignNtB6_28SignablePayloadFieldAmountV2NtNtCs2n7C5Lt3XWo_5serde3ser9Serialize9serializeNtNtNtCsaG8a4LftQFj_10serde_json5value3ser10SerializerEB6_
FN:623,_RINvXsh_Cs7bqwNgl0eIg_10visualsignNtB6_37SignablePayloadFieldDynamicAnnotationNtNtCs2n7C5Lt3XWo_5serde3ser9Serialize9serializeNtNtNtCsaG8a4LftQFj_10serde_json5value3ser10SerializerEB6_
FN:667,_RINvXsk_Cs7bqwNgl0eIg_10visualsignNtB6_21AnnotatedPayloadFieldNtNtCs2n7C5Lt3XWo_5serde3ser9Serialize9serializeNtNtNtCsaG8a4LftQFj_10serde_json5value3ser10SerializerEB6_
FN:330,_RNCINvXs0_Cs7bqwNgl0eIg_10visualsignNtB8_20SignablePayloadFieldNtNtCs2n7C5Lt3XWo_5serde3ser9Serialize9serializeNtNtNtCsaG8a4LftQFj_10serde_json5value3ser10SerializerE0B8_
FN:840,_RNCNvMso_Cs7bqwNgl0eIg_10visualsignNtB7_15SignablePayload16validate_charset0B7_
FN:877,_RNCNvMso_Cs7bqwNgl0eIg_10visualsignNtB7_15SignablePayload17to_validated_json0B7_
FN:19,_RNCNvYNtCs7bqwNgl0eIg_10visualsign20SignablePayloadFieldNtB6_21DeterministicOrdering29verify_deterministic_ordering0B6_
FN:19,_RNCNvYNtCs7bqwNgl0eIg_10visualsign30SignablePayloadFieldListLayoutNtB6_21DeterministicOrdering29verify_deterministic_ordering0B6_
FN:19,_RNCNvYNtCs7bqwNgl0eIg_10visualsign33SignablePayloadFieldPreviewLayoutNtB6_21DeterministicOrdering29verify_deterministic_ordering0B6_
FN:18,_RNvYNtCs7bqwNgl0eIg_10visualsign20SignablePayloadFieldNtB4_21DeterministicOrdering29verify_deterministic_orderingB4_
FN:18,_RNvYNtCs7bqwNgl0eIg_10visualsign30SignablePayloadFieldListLayoutNtB4_21DeterministicOrdering29verify_deterministic_orderingB4_
FN:18,_RNvYNtCs7bqwNgl0eIg_10visualsign33SignablePayloadFieldPreviewLayoutNtB4_21DeterministicOrdering29verify_deterministic_orderingB4_
FN:41,_RINvCs7bqwNgl0eIg_10visualsign20assert_deterministicpEB2_
FN:745,_RINvMsn_Cs7bqwNgl0eIg_10visualsignNtB6_15SignablePayload24new_with_verified_fieldspEB6_
FNDA:22,_RNvCs7bqwNgl0eIg_10visualsign15is_empty_string
FNDA:3512,_RNvCs7bqwNgl0eIg_10visualsign24sort_json_alphabetically
FNDA:0,_RNvCs7bqwNgl0eIg_10visualsign25verify_json_deterministic
FNDA:0,_RNvMs2_Cs7bqwNgl0eIg_10visualsignNtB5_20SignablePayloadField10field_type
FNDA:22,_RNvMs2_Cs7bqwNgl0eIg_10visualsignNtB5_20SignablePayloadField13fallback_text
FNDA:33,_RNvMs2_Cs7bqwNgl0eIg_10visualsignNtB5_20SignablePayloadField5label
FNDA:0,_RNvMsn_Cs7bqwNgl0eIg_10visualsignNtB5_15SignablePayload14to_pretty_json
FNDA:0,_RNvMsn_Cs7bqwNgl0eIg_10visualsignNtB5_15SignablePayload35verify_field_deterministic_ordering
FNDA:10,_RNvMsn_Cs7bqwNgl0eIg_10visualsignNtB5_15SignablePayload3new
FNDA:11,_RNvMsn_Cs7bqwNgl0eIg_10visualsignNtB5_15SignablePayload7to_json
FNDA:4,_RNvMso_Cs7bqwNgl0eIg_10visualsignNtB5_15SignablePayload16validate_charset
FNDA:2,_RNvMso_Cs7bqwNgl0eIg_10visualsignNtB5_15SignablePayload17to_validated_json
FNDA:516,_RNvXs_Cs7bqwNgl0eIg_10visualsignNtB4_20SignablePayloadFieldNtB4_15FieldSerializer16serialize_to_map
FNDA:74,_RNvXs_Cs7bqwNgl0eIg_10visualsignNtB4_20SignablePayloadFieldNtB4_15FieldSerializer19get_expected_fields
FNDA:74,_RINvXs0_Cs7bqwNgl0eIg_10visualsignNtB6_20SignablePayloadFieldNtNtCs2n7C5Lt3XWo_5serde3ser9Serialize9serializeNtNtNtCsaG8a4LftQFj_10serde_json5value3ser10SerializerEB6_
FNDA:55,_RINvXs4_Cs7bqwNgl0eIg_10visualsignNtB6_33SignablePayloadFieldPreviewLayoutNtNtCs2n7C5Lt3XWo_5serde3ser9Serialize9serializeNtNtNtCsaG8a4LftQFj_10serde_json5value3ser10SerializerEB6_
FNDA:19,_RINvXsc_Cs7bqwNgl0eIg_10visualsignNtB6_28SignablePayloadFieldAmountV2NtNtCs2n7C5Lt3XWo_5serde3ser9Serialize9serializeNtNtNtCsaG8a4LftQFj_10serde_json5value3ser10SerializerEB6_
FNDA:0,_RINvXsh_Cs7bqwNgl0eIg_10visualsignNtB6_37SignablePayloadFieldDynamicAnnotationNtNtCs2n7C5Lt3XWo_5serde3ser9Serialize9serializeNtNtNtCsaG8a4LftQFj_10serde_json5value3ser10SerializerEB6_
FNDA:442,_RINvXsk_Cs7bqwNgl0eIg_10visualsignNtB6_21AnnotatedPayloadFieldNtNtCs2n7C5Lt3XWo_5serde3ser9Serialize9serializeNtNtNtCsaG8a4LftQFj_10serde_json5value3ser10SerializerEB6_
FNDA:296,_RNCINvXs0_Cs7bqwNgl0eIg_10visualsignNtB8_20SignablePayloadFieldNtNtCs2n7C5Lt3XWo_5serde3ser9Serialize9serializeNtNtNtCsaG8a4LftQFj_10serde_json5value3ser10SerializerE0B8_
FNDA:0,_RNCNvMso_Cs7bqwNgl0eIg_10visualsignNtB7_15SignablePayload16validate_charset0B7_
FNDA:0,_RNCNvMso_Cs7bqwNgl0eIg_10visualsignNtB7_15SignablePayload17to_validated_json0B7_
FNDA:0,_RNCNvYNtCs7bqwNgl0eIg_10visualsign20SignablePayloadFieldNtB6_21DeterministicOrdering29verify_deterministic_ordering0B6_
FNDA:0,_RNCNvYNtCs7bqwNgl0eIg_10visualsign30SignablePayloadFieldListLayoutNtB6_21DeterministicOrdering29verify_deterministic_ordering0B6_
FNDA:0,_RNCNvYNtCs7bqwNgl0eIg_10visualsign33SignablePayloadFieldPreviewLayoutNtB6_21DeterministicOrdering29verify_deterministic_ordering0B6_
FNDA:0,_RNvYNtCs7bqwNgl0eIg_10visualsign20SignablePayloadFieldNtB4_21DeterministicOrdering29verify_deterministic_orderingB4_
FNDA:0,_RNvYNtCs7bqwNgl0eIg_10visualsign30SignablePayloadFieldListLayoutNtB4_21DeterministicOrdering29verify_deterministic_orderingB4_
FNDA:0,_RNvYNtCs7bqwNgl0eIg_10visualsign33SignablePayloadFieldPreviewLayoutNtB4_21DeterministicOrdering29verify_deterministic_orderingB4_
FNDA:0,_RINvCs7bqwNgl0eIg_10visualsign20assert_deterministicpEB2_
FNDA:0,_RINvMsn_Cs7bqwNgl0eIg_10visualsignNtB6_15SignablePayload24new_with_verified_fieldspEB6_
FNF:26
FNH:15
DA:18,0
DA:19,0
DA:21,0
DA:22,0
DA:41,0
DA:42,0
DA:43,0
DA:46,0
DA:47,0
DA:48,0
DA:49,0
DA:50,0
DA:51,0
DA:53,0
DA:54,0
DA:55,0
DA:56,0
DA:60,0
DA:63,0
DA:64,0
DA:65,0
DA:67,0
DA:69,0
DA:72,0
DA:73,0
DA:74,0
DA:75,0
DA:78,0
DA:80,0
DA:81,0
DA:84,22
DA:85,22
DA:86,22
DA:235,516
DA:236,516
DA:237,516
DA:238,516
DA:241,516
DA:242,0
DA:243,0
DA:244,0
DA:245,430
DA:246,430
DA:247,430
DA:248,0
DA:249,0
DA:250,0
DA:251,0
DA:252,0
DA:253,0
DA:254,12
DA:255,12
DA:256,12
DA:257,0
DA:258,0
DA:259,0
DA:260,19
DA:261,19
DA:262,19
DA:263,0
DA:264,0
DA:265,0
DA:267,55
DA:268,55
DA:269,55
DA:270,55
DA:271,55
DA:272,55
DA:273,55
DA:274,55
DA:275,55
DA:276,55
DA:278,0
DA:279,0
DA:280,0
DA:281,0
DA:282,0
DA:283,0
DA:284,0
DA:285,0
DA:286,0
DA:287,0
DA:288,0
DA:289,0
DA:290,0
DA:294,516
DA:295,516
DA:297,74
DA:298,74
DA:300,74
DA:301,0
DA:302,19
DA:303,0
DA:304,0
DA:305,0
DA:306,0
DA:307,0
DA:308,0
DA:309,55
DA:310,0
DA:311,0
DA:314,74
DA:315,74
DA:316,74
DA:321,74
DA:322,74
DA:323,74
DA:326,74
DA:329,74
DA:330,296
DA:333,370
DA:334,296
DA:335,0
DA:336,0
DA:337,0
DA:338,0
DA:339,0
DA:340,0
DA:341,0
DA:342,296
DA:346,370
DA:347,296
DA:348,0
DA:349,0
DA:350,0
DA:351,0
DA:352,0
DA:353,0
DA:354,296
DA:358,74
DA:359,370
DA:360,296
DA:362,74
DA:363,74
DA:371,22
DA:372,22
DA:373,0
DA:374,12
DA:375,0
DA:376,0
DA:377,0
DA:378,0
DA:379,0
DA:380,0
DA:381,10
DA:382,0
DA:383,0
DA:385,22
DA:387,33
DA:388,33
DA:389,0
DA:390,18
DA:391,0
DA:392,0
DA:393,0
DA:394,0
DA:395,0
DA:396,0
DA:397,15
DA:398,0
DA:399,0
DA:401,33
DA:403,0
DA:404,0
DA:405,0
DA:406,0
DA:407,0
DA:408,0
DA:409,0
DA:410,0
DA:411,0
DA:412,0
DA:413,0
DA:414,0
DA:415,0
DA:417,0
DA:438,55
DA:439,55
DA:440,55
DA:443,55
DA:447,55
DA:448,55
DA:450,55
DA:452,0
DA:453,55
DA:454,55
DA:455,55
DA:456,55
DA:458,0
DA:459,55
DA:460,55
DA:461,55
DA:462,55
DA:464,0
DA:465,55
DA:466,55
DA:467,55
DA:468,55
DA:470,0
DA:473,55
DA:474,275
DA:475,220
DA:477,55
DA:478,55
DA:565,19
DA:566,19
DA:567,19
DA:571,19
DA:572,19
DA:573,19
DA:574,19
DA:575,19
DA:576,19
DA:577,19
DA:623,0
DA:624,0
DA:625,0
DA:629,0
DA:630,0
DA:631,0
DA:632,0
DA:633,0
DA:634,0
DA:667,442
DA:668,442
DA:669,442
DA:672,442
DA:673,442
DA:674,442
DA:675,442
DA:678,442
DA:681,2210
DA:682,1768
DA:683,1768
DA:686,442
DA:687,0
DA:688,0
DA:689,0
DA:691,442
DA:693,442
DA:694,0
DA:695,0
DA:696,0
DA:698,442
DA:701,442
DA:702,2210
DA:703,1768
DA:705,442
DA:706,442
DA:728,10
DA:729,10
DA:730,10
DA:731,10
DA:732,10
DA:733,10
DA:734,10
DA:735,10
DA:736,10
DA:737,10
DA:738,10
DA:739,10
DA:740,10
DA:741,10
DA:742,10
DA:745,0
DA:746,0
DA:747,0
DA:748,0
DA:749,0
DA:750,0
DA:751,0
DA:752,0
DA:753,0
DA:755,0
DA:756,0
DA:757,0
DA:758,0
DA:759,0
DA:760,0
DA:761,0
DA:762,0
DA:765,0
DA:768,0
DA:769,0
DA:770,0
DA:771,0
DA:772,0
DA:773,0
DA:774,0
DA:775,0
DA:776,0
DA:778,0
DA:779,0
DA:781,0
DA:783,0
DA:784,0
DA:786,11
DA:788,11
DA:791,11
DA:794,11
DA:795,11
DA:796,11
DA:797,11
DA:800,11
DA:801,11
DA:804,0
DA:805,0
DA:806,0
DA:807,0
DA:808,0
DA:812,3512
DA:813,3512
DA:814,1249
DA:816,1249
DA:819,4241
DA:820,2992
DA:821,2992
DA:824,1249
DA:826,121
DA:828,121
DA:831,2142
DA:833,3512
DA:839,4
DA:840,4
DA:841,0
DA:842,0
DA:845,4
DA:846,0
DA:847,0
DA:848,0
DA:849,4
DA:852,4
DA:853,0
DA:854,0
DA:855,0
DA:856,4
DA:859,39365
DA:860,39365
DA:861,0
DA:862,0
DA:863,0
DA:864,0
DA:865,0
DA:866,0
DA:867,39365
DA:870,4
DA:871,4
DA:874,2
DA:875,2
DA:876,2
DA:877,2
DA:878,2
BRF:0
BRH:0
LF:357
LH:171
end_of_record
SF:/home/user/projects/visualsign-parser/src/visualsign/src/registry.rs
FN:135,_RINvMs3_NtCs7bqwNgl0eIg_10visualsign8registryNtB6_28TransactionConverterRegistry8registerppEB8_
FN:88,_RNvMs0_NtCs7bqwNgl0eIg_10visualsign8registryINtB5_16ConverterWrapperppE3newB7_
FN:111,_RNvXININtCs7bqwNgl0eIg_10visualsign8registrys1_0ppEINtB5_16ConverterWrapperppENtB5_22VisualSignConverterAny15supports_formatB7_
FN:102,_RNvXININtCs7bqwNgl0eIg_10visualsign8registrys1_0ppEINtB5_16ConverterWrapperppENtB5_22VisualSignConverterAny38to_visual_sign_payload_from_string_anyB7_
FN:29,_RNvMNtCs7bqwNgl0eIg_10visualsign8registryNtB2_5Chain6as_str
FN:144,_RNvMs3_NtCs7bqwNgl0eIg_10visualsign8registryNtB5_28TransactionConverterRegistry13get_converter
FN:187,_RNvMs3_NtCs7bqwNgl0eIg_10visualsign8registryNtB5_28TransactionConverterRegistry16supported_chains
FN:148,_RNvMs3_NtCs7bqwNgl0eIg_10visualsign8registryNtB5_28TransactionConverterRegistry19convert_transaction
FN:165,_RNvMs3_NtCs7bqwNgl0eIg_10visualsign8registryNtB5_28TransactionConverterRegistry23auto_detect_and_convert
FN:129,_RNvMs3_NtCs7bqwNgl0eIg_10visualsign8registryNtB5_28TransactionConverterRegistry3new
FN:123,_RNvXs2_NtCs7bqwNgl0eIg_10visualsign8registryNtB5_28TransactionConverterRegistryNtNtCs1p5UDGgVI4d_4core7default7Default7default
FN:47,_RNvXs_NtCs7bqwNgl0eIg_10visualsign8registryNtB4_5ChainNtNtNtCs1p5UDGgVI4d_4core3str6traits7FromStr8from_str
FN:145,_RNCNvMs3_NtCs7bqwNgl0eIg_10visualsign8registryNtB7_28TransactionConverterRegistry13get_converter0B9_
FNDA:0,_RINvMs3_NtCs7bqwNgl0eIg_10visualsign8registryNtB6_28TransactionConverterRegistry8registerppEB8_
FNDA:0,_RNvMs0_NtCs7bqwNgl0eIg_10visualsign8registryINtB5_16ConverterWrapperppE3newB7_
FNDA:0,_RNvXININtCs7bqwNgl0eIg_10visualsign8registrys1_0ppEINtB5_16ConverterWrapperppENtB5_22VisualSignConverterAny15supports_formatB7_
FNDA:0,_RNvXININtCs7bqwNgl0eIg_10visualsign8registrys1_0ppEINtB5_16ConverterWrapperppENtB5_22VisualSignConverterAny38to_visual_sign_payload_from_string_anyB7_
FNDA:0,_RNvMNtCs7bqwNgl0eIg_10visualsign8registryNtB2_5Chain6as_str
FNDA:0,_RNvMs3_NtCs7bqwNgl0eIg_10visualsign8registryNtB5_28TransactionConverterRegistry13get_converter
FNDA:0,_RNvMs3_NtCs7bqwNgl0eIg_10visualsign8registryNtB5_28TransactionConverterRegistry16supported_chains
FNDA:0,_RNvMs3_NtCs7bqwNgl0eIg_10visualsign8registryNtB5_28TransactionConverterRegistry19convert_transaction
FNDA:0,_RNvMs3_NtCs7bqwNgl0eIg_10visualsign8registryNtB5_28TransactionConverterRegistry23auto_detect_and_convert
FNDA:0,_RNvMs3_NtCs7bqwNgl0eIg_10visualsign8registryNtB5_28TransactionConverterRegistry3new
FNDA:0,_RNvXs2_NtCs7bqwNgl0eIg_10visualsign8registryNtB5_28TransactionConverterRegistryNtNtCs1p5UDGgVI4d_4core7default7Default7default
FNDA:0,_RNvXs_NtCs7bqwNgl0eIg_10visualsign8registryNtB4_5ChainNtNtNtCs1p5UDGgVI4d_4core3str6traits7FromStr8from_str
FNDA:0,_RNCNvMs3_NtCs7bqwNgl0eIg_10visualsign8registryNtB7_28TransactionConverterRegistry13get_converter0B9_
FNF:13
FNH:0
DA:29,0
DA:30,0
DA:31,0
DA:32,0
DA:33,0
DA:34,0
DA:35,0
DA:36,0
DA:37,0
DA:38,0
DA:39,0
DA:41,0
DA:47,0
DA:48,0
DA:49,0
DA:50,0
DA:51,0
DA:52,0
DA:53,0
DA:54,0
DA:55,0
DA:56,0
DA:57,0
DA:59,0
DA:88,0
DA:89,0
DA:90,0
DA:91,0
DA:92,0
DA:93,0
DA:102,0
DA:103,0
DA:104,0
DA:105,0
DA:106,0
DA:107,0
DA:108,0
DA:109,0
DA:111,0
DA:113,0
DA:114,0
DA:123,0
DA:124,0
DA:125,0
DA:129,0
DA:130,0
DA:131,0
DA:132,0
DA:133,0
DA:135,0
DA:136,0
DA:137,0
DA:138,0
DA:140,0
DA:141,0
DA:142,0
DA:144,0
DA:145,0
DA:146,0
DA:148,0
DA:149,0
DA:150,0
DA:151,0
DA:152,0
DA:153,0
DA:154,0
DA:155,0
DA:156,0
DA:158,0
DA:159,0
DA:160,0
DA:161,0
DA:163,0
DA:165,0
DA:166,0
DA:167,0
DA:168,0
DA:169,0
DA:171,0
DA:172,0
DA:173,0
DA:174,0
DA:176,0
DA:177,0
DA:179,0
DA:182,0
DA:183,0
DA:184,0
DA:185,0
DA:187,0
DA:188,0
DA:189,0
BRF:0
BRH:0
LF:93
LH:0
end_of_record
SF:/home/user/projects/visualsign-parser/src/visualsign/src/test_utils.rs
FN:69,_RNCNvNtCs7bqwNgl0eIg_10visualsign10test_utils22check_signable_payload0B5_
FN:81,_RNCNvNtCs7bqwNgl0eIg_10visualsign10test_utils28check_signable_payload_field0B5_
FN:89,_RNCNvNtCs7bqwNgl0eIg_10visualsign10test_utils28check_signable_payload_fields0_0B5_
FN:93,_RNCNvNtCs7bqwNgl0eIg_10visualsign10test_utils28check_signable_payload_fields1_0B5_
FN:97,_RNCNvNtCs7bqwNgl0eIg_10visualsign10test_utils28check_signable_payload_fields2_0B5_
FN:101,_RNCNvNtCs7bqwNgl0eIg_10visualsign10test_utils28check_signable_payload_fields3_0B5_
FN:105,_RNCNvNtCs7bqwNgl0eIg_10visualsign10test_utils28check_signable_payload_fields4_0B5_
FN:112,_RNCNvNtCs7bqwNgl0eIg_10visualsign10test_utils28check_signable_payload_fields5_0B5_
FN:117,_RNCNvNtCs7bqwNgl0eIg_10visualsign10test_utils28check_signable_payload_fields6_0B5_
FN:118,_RNCNvNtCs7bqwNgl0eIg_10visualsign10test_utils28check_signable_payload_fields7_0B5_
FN:119,_RNCNvNtCs7bqwNgl0eIg_10visualsign10test_utils28check_signable_payload_fields8_0B5_
FN:127,_RNCNvNtCs7bqwNgl0eIg_10visualsign10test_utils28check_signable_payload_fields9_0B5_
FN:85,_RNCNvNtCs7bqwNgl0eIg_10visualsign10test_utils28check_signable_payload_fields_0B5_
FN:132,_RNCNvNtCs7bqwNgl0eIg_10visualsign10test_utils28check_signable_payload_fieldsa_0B5_
FN:37,_RNCNvNtCs7bqwNgl0eIg_10visualsign10test_utils40assert_has_field_with_value_with_context0B5_
FN:3,_RNvNtCs7bqwNgl0eIg_10visualsign10test_utils16assert_has_field
FN:65,_RNvNtCs7bqwNgl0eIg_10visualsign10test_utils22check_signable_payload
FN:13,_RNvNtCs7bqwNgl0eIg_10visualsign10test_utils27assert_has_field_with_value
FN:75,_RNvNtCs7bqwNgl0eIg_10visualsign10test_utils28check_signable_payload_field
FN:8,_RNvNtCs7bqwNgl0eIg_10visualsign10test_utils29assert_has_field_with_context
FN:25,_RNvNtCs7bqwNgl0eIg_10visualsign10test_utils40assert_has_field_with_value_with_context
FN:42,_RNvNtCs7bqwNgl0eIg_10visualsign10test_utils42assert_has_fields_with_values_with_context
FNDA:0,_RNCNvNtCs7bqwNgl0eIg_10visualsign10test_utils22check_signable_payload0B5_
FNDA:0,_RNCNvNtCs7bqwNgl0eIg_10visualsign10test_utils28check_signable_payload_field0B5_
FNDA:0,_RNCNvNtCs7bqwNgl0eIg_10visualsign10test_utils28check_signable_payload_fields0_0B5_
FNDA:0,_RNCNvNtCs7bqwNgl0eIg_10visualsign10test_utils28check_signable_payload_fields1_0B5_
FNDA:0,_RNCNvNtCs7bqwNgl0eIg_10visualsign10test_utils28check_signable_payload_fields2_0B5_
FNDA:0,_RNCNvNtCs7bqwNgl0eIg_10visualsign10test_utils28check_signable_payload_fields3_0B5_
FNDA:0,_RNCNvNtCs7bqwNgl0eIg_10visualsign10test_utils28check_signable_payload_fields4_0B5_
FNDA:0,_RNCNvNtCs7bqwNgl0eIg_10visualsign10test_utils28check_signable_payload_fields5_0B5_
FNDA:0,_RNCNvNtCs7bqwNgl0eIg_10visualsign10test_utils28check_signable_payload_fields6_0B5_
FNDA:0,_RNCNvNtCs7bqwNgl0eIg_10visualsign10test_utils28check_signable_payload_fields7_0B5_
FNDA:0,_RNCNvNtCs7bqwNgl0eIg_10visualsign10test_utils28check_signable_payload_fields8_0B5_
FNDA:0,_RNCNvNtCs7bqwNgl0eIg_10visualsign10test_utils28check_signable_payload_fields9_0B5_
FNDA:0,_RNCNvNtCs7bqwNgl0eIg_10visualsign10test_utils28check_signable_payload_fields_0B5_
FNDA:0,_RNCNvNtCs7bqwNgl0eIg_10visualsign10test_utils28check_signable_payload_fieldsa_0B5_
FNDA:0,_RNCNvNtCs7bqwNgl0eIg_10visualsign10test_utils40assert_has_field_with_value_with_context0B5_
FNDA:0,_RNvNtCs7bqwNgl0eIg_10visualsign10test_utils16assert_has_field
FNDA:0,_RNvNtCs7bqwNgl0eIg_10visualsign10test_utils22check_signable_payload
FNDA:0,_RNvNtCs7bqwNgl0eIg_10visualsign10test_utils27assert_has_field_with_value
FNDA:0,_RNvNtCs7bqwNgl0eIg_10visualsign10test_utils28check_signable_payload_field
FNDA:0,_RNvNtCs7bqwNgl0eIg_10visualsign10test_utils29assert_has_field_with_context
FNDA:0,_RNvNtCs7bqwNgl0eIg_10visualsign10test_utils40assert_has_field_with_value_with_context
FNDA:0,_RNvNtCs7bqwNgl0eIg_10visualsign10test_utils42assert_has_fields_with_values_with_context
FNF:22
FNH:0
DA:3,0
DA:4,0
DA:5,0
DA:6,0
DA:8,0
DA:9,0
DA:10,0
DA:11,0
DA:13,0
DA:14,0
DA:15,0
DA:16,0
DA:17,0
DA:19,0
DA:20,0
DA:21,0
DA:23,0
DA:25,0
DA:26,0
DA:27,0
DA:28,0
DA:29,0
DA:30,0
DA:31,0
DA:32,0
DA:33,0
DA:34,0
DA:36,0
DA:37,0
DA:38,0
DA:40,0
DA:42,0
DA:43,0
DA:44,0
DA:45,0
DA:46,0
DA:47,0
DA:48,0
DA:49,0
DA:51,0
DA:52,0
DA:53,0
DA:54,0
DA:55,0
DA:59,0
DA:61,0
DA:63,0
DA:65,0
DA:66,0
DA:67,0
DA:68,0
DA:69,0
DA:70,0
DA:72,0
DA:73,0
DA:75,0
DA:76,0
DA:77,0
DA:78,0
DA:79,0
DA:80,0
DA:81,0
DA:82,0
DA:83,0
DA:84,0
DA:85,0
DA:86,0
DA:87,0
DA:88,0
DA:89,0
DA:90,0
DA:91,0
DA:92,0
DA:93,0
DA:94,0
DA:95,0
DA:96,0
DA:97,0
DA:98,0
DA:99,0
DA:100,0
DA:101,0
DA:102,0
DA:103,0
DA:104,0
DA:105,0
DA:106,0
DA:107,0
DA:109,0
DA:110,0
DA:112,0
DA:114,0
DA:115,0
DA:116,0
DA:117,0
DA:118,0
DA:119,0
DA:121,0
DA:124,0
DA:125,0
DA:127,0
DA:129,0
DA:130,0
DA:131,0
DA:132,0
DA:134,0
DA:136,0
DA:139,0
DA:140,0
BRF:0
BRH:0
LF:124
LH:0
end_of_record
SF:/home/user/projects/visualsign-parser/src/visualsign/src/vsptrait.rs
FN:23,_RNvYNtNtNtCs6ttZxmOuonq_17visualsign_solana4core10visualsign25SolanaVisualSignConverterINtNtCs7bqwNgl0eIg_10visualsign8vsptrait19VisualSignConverterNtB4_24SolanaTransactionWrapperE32to_validated_visual_sign_payloadB8_
FN:68,_RNvYNtNtNtCs6ttZxmOuonq_17visualsign_solana4core10visualsign25SolanaVisualSignConverterINtNtCs7bqwNgl0eIg_10visualsign8vsptrait29VisualSignConverterFromStringNtB4_24SolanaTransactionWrapperE34to_visual_sign_payload_from_stringB8_
FN:23,_RNvYpINtNtCs7bqwNgl0eIg_10visualsign8vsptrait19VisualSignConverterpE32to_validated_visual_sign_payloadB8_
FN:68,_RNvYpINtNtCs7bqwNgl0eIg_10visualsign8vsptrait29VisualSignConverterFromStringpE34to_visual_sign_payload_from_stringB8_
FNDA:1,_RNvYNtNtNtCs6ttZxmOuonq_17visualsign_solana4core10visualsign25SolanaVisualSignConverterINtNtCs7bqwNgl0eIg_10visualsign8vsptrait19VisualSignConverterNtB4_24SolanaTransactionWrapperE32to_validated_visual_sign_payloadB8_
FNDA:1,_RNvYNtNtNtCs6ttZxmOuonq_17visualsign_solana4core10visualsign25SolanaVisualSignConverterINtNtCs7bqwNgl0eIg_10visualsign8vsptrait29VisualSignConverterFromStringNtB4_24SolanaTransactionWrapperE34to_visual_sign_payload_from_stringB8_
FNDA:0,_RNvYpINtNtCs7bqwNgl0eIg_10visualsign8vsptrait19VisualSignConverterpE32to_validated_visual_sign_payloadB8_
FNDA:0,_RNvYpINtNtCs7bqwNgl0eIg_10visualsign8vsptrait29VisualSignConverterFromStringpE34to_visual_sign_payload_from_stringB8_
FNF:2
FNH:2
DA:23,1
DA:24,1
DA:25,1
DA:26,1
DA:27,1
DA:28,1
DA:29,1
DA:30,1
DA:31,1
DA:68,1
DA:69,1
DA:70,1
DA:71,1
DA:72,1
DA:73,1
DA:74,1
DA:75,1
BRF:0
BRH:0
LF:17
LH:17
end_of_record